
ps2-msxF4.elf:     file format elf32-littlearm
architecture: armv7e-m, flags 0x00000112:
EXEC_P, HAS_SYMS, D_PAGED
start address 0x08002b6d


Disassembly of section .text:

08000000 <vector_table>:
 8000000:	20010000 	andcs	r0, r1, r0
 8000004:	08002b6d 	stmdaeq	r0, {r0, r2, r3, r5, r6, r8, r9, fp, sp}
 8000008:	08002b6b 	stmdaeq	r0, {r0, r1, r3, r5, r6, r8, r9, fp, sp}
 800000c:	08002b69 	stmdaeq	r0, {r0, r3, r5, r6, r8, r9, fp, sp}
 8000010:	08002b69 	stmdaeq	r0, {r0, r3, r5, r6, r8, r9, fp, sp}
 8000014:	08002b69 	stmdaeq	r0, {r0, r3, r5, r6, r8, r9, fp, sp}
 8000018:	08002b69 	stmdaeq	r0, {r0, r3, r5, r6, r8, r9, fp, sp}
	...
 800002c:	08002b6b 	stmdaeq	r0, {r0, r1, r3, r5, r6, r8, r9, fp, sp}
 8000030:	08002b6b 	stmdaeq	r0, {r0, r1, r3, r5, r6, r8, r9, fp, sp}
 8000034:	00000000 	andeq	r0, r0, r0
 8000038:	08002b6b 	stmdaeq	r0, {r0, r1, r3, r5, r6, r8, r9, fp, sp}
 800003c:	08001b79 	stmdaeq	r0, {r0, r3, r4, r5, r6, r8, r9, fp, ip}
 8000040:	08002b69 	stmdaeq	r0, {r0, r3, r5, r6, r8, r9, fp, sp}
 8000044:	08002b69 	stmdaeq	r0, {r0, r3, r5, r6, r8, r9, fp, sp}
 8000048:	08002b69 	stmdaeq	r0, {r0, r3, r5, r6, r8, r9, fp, sp}
 800004c:	08002b69 	stmdaeq	r0, {r0, r3, r5, r6, r8, r9, fp, sp}
 8000050:	08002b69 	stmdaeq	r0, {r0, r3, r5, r6, r8, r9, fp, sp}
 8000054:	08002b69 	stmdaeq	r0, {r0, r3, r5, r6, r8, r9, fp, sp}
 8000058:	08002b69 	stmdaeq	r0, {r0, r3, r5, r6, r8, r9, fp, sp}
 800005c:	08002b69 	stmdaeq	r0, {r0, r3, r5, r6, r8, r9, fp, sp}
 8000060:	08002b69 	stmdaeq	r0, {r0, r3, r5, r6, r8, r9, fp, sp}
 8000064:	08002b69 	stmdaeq	r0, {r0, r3, r5, r6, r8, r9, fp, sp}
 8000068:	08000b91 	stmdaeq	r0, {r0, r4, r7, r8, r9, fp}
 800006c:	08002b69 	stmdaeq	r0, {r0, r3, r5, r6, r8, r9, fp, sp}
 8000070:	08002b69 	stmdaeq	r0, {r0, r3, r5, r6, r8, r9, fp, sp}
 8000074:	08002b69 	stmdaeq	r0, {r0, r3, r5, r6, r8, r9, fp, sp}
 8000078:	08002b69 	stmdaeq	r0, {r0, r3, r5, r6, r8, r9, fp, sp}
 800007c:	08002b69 	stmdaeq	r0, {r0, r3, r5, r6, r8, r9, fp, sp}
 8000080:	08002b69 	stmdaeq	r0, {r0, r3, r5, r6, r8, r9, fp, sp}
 8000084:	08002b69 	stmdaeq	r0, {r0, r3, r5, r6, r8, r9, fp, sp}
 8000088:	08002b69 	stmdaeq	r0, {r0, r3, r5, r6, r8, r9, fp, sp}
 800008c:	08002b69 	stmdaeq	r0, {r0, r3, r5, r6, r8, r9, fp, sp}
 8000090:	08002b69 	stmdaeq	r0, {r0, r3, r5, r6, r8, r9, fp, sp}
 8000094:	08002b69 	stmdaeq	r0, {r0, r3, r5, r6, r8, r9, fp, sp}
 8000098:	08002b69 	stmdaeq	r0, {r0, r3, r5, r6, r8, r9, fp, sp}
 800009c:	08000b3d 	stmdaeq	r0, {r0, r2, r3, r4, r5, r8, r9, fp}
 80000a0:	08002b69 	stmdaeq	r0, {r0, r3, r5, r6, r8, r9, fp, sp}
 80000a4:	08002b69 	stmdaeq	r0, {r0, r3, r5, r6, r8, r9, fp, sp}
 80000a8:	08002b69 	stmdaeq	r0, {r0, r3, r5, r6, r8, r9, fp, sp}
 80000ac:	08002b69 	stmdaeq	r0, {r0, r3, r5, r6, r8, r9, fp, sp}
 80000b0:	080020c1 	stmdaeq	r0, {r0, r6, r7, sp}
 80000b4:	08002b69 	stmdaeq	r0, {r0, r3, r5, r6, r8, r9, fp, sp}
 80000b8:	08002b69 	stmdaeq	r0, {r0, r3, r5, r6, r8, r9, fp, sp}
 80000bc:	08002b69 	stmdaeq	r0, {r0, r3, r5, r6, r8, r9, fp, sp}
 80000c0:	08002b69 	stmdaeq	r0, {r0, r3, r5, r6, r8, r9, fp, sp}
 80000c4:	08002b69 	stmdaeq	r0, {r0, r3, r5, r6, r8, r9, fp, sp}
 80000c8:	08002b69 	stmdaeq	r0, {r0, r3, r5, r6, r8, r9, fp, sp}
 80000cc:	08002b69 	stmdaeq	r0, {r0, r3, r5, r6, r8, r9, fp, sp}
 80000d0:	08002b69 	stmdaeq	r0, {r0, r3, r5, r6, r8, r9, fp, sp}
 80000d4:	08002b69 	stmdaeq	r0, {r0, r3, r5, r6, r8, r9, fp, sp}
 80000d8:	08001e95 	stmdaeq	r0, {r0, r2, r4, r7, r9, sl, fp, ip}
 80000dc:	08002b69 	stmdaeq	r0, {r0, r3, r5, r6, r8, r9, fp, sp}
 80000e0:	08001519 	stmdaeq	r0, {r0, r3, r4, r8, sl, ip}
 80000e4:	08002b69 	stmdaeq	r0, {r0, r3, r5, r6, r8, r9, fp, sp}
 80000e8:	08002b69 	stmdaeq	r0, {r0, r3, r5, r6, r8, r9, fp, sp}
 80000ec:	08002b69 	stmdaeq	r0, {r0, r3, r5, r6, r8, r9, fp, sp}
 80000f0:	08002b69 	stmdaeq	r0, {r0, r3, r5, r6, r8, r9, fp, sp}
 80000f4:	08002b69 	stmdaeq	r0, {r0, r3, r5, r6, r8, r9, fp, sp}
 80000f8:	08002b69 	stmdaeq	r0, {r0, r3, r5, r6, r8, r9, fp, sp}
 80000fc:	08002b69 	stmdaeq	r0, {r0, r3, r5, r6, r8, r9, fp, sp}
 8000100:	08002b69 	stmdaeq	r0, {r0, r3, r5, r6, r8, r9, fp, sp}
 8000104:	08002b69 	stmdaeq	r0, {r0, r3, r5, r6, r8, r9, fp, sp}
 8000108:	08002b69 	stmdaeq	r0, {r0, r3, r5, r6, r8, r9, fp, sp}
 800010c:	08002b69 	stmdaeq	r0, {r0, r3, r5, r6, r8, r9, fp, sp}
 8000110:	08002b69 	stmdaeq	r0, {r0, r3, r5, r6, r8, r9, fp, sp}
 8000114:	08002b69 	stmdaeq	r0, {r0, r3, r5, r6, r8, r9, fp, sp}
 8000118:	08002b69 	stmdaeq	r0, {r0, r3, r5, r6, r8, r9, fp, sp}
 800011c:	08002b69 	stmdaeq	r0, {r0, r3, r5, r6, r8, r9, fp, sp}
 8000120:	08002b69 	stmdaeq	r0, {r0, r3, r5, r6, r8, r9, fp, sp}
 8000124:	08002b69 	stmdaeq	r0, {r0, r3, r5, r6, r8, r9, fp, sp}
 8000128:	08002b69 	stmdaeq	r0, {r0, r3, r5, r6, r8, r9, fp, sp}
 800012c:	08002b69 	stmdaeq	r0, {r0, r3, r5, r6, r8, r9, fp, sp}
 8000130:	08002b69 	stmdaeq	r0, {r0, r3, r5, r6, r8, r9, fp, sp}
 8000134:	08002b69 	stmdaeq	r0, {r0, r3, r5, r6, r8, r9, fp, sp}
 8000138:	08002b69 	stmdaeq	r0, {r0, r3, r5, r6, r8, r9, fp, sp}
 800013c:	08002b69 	stmdaeq	r0, {r0, r3, r5, r6, r8, r9, fp, sp}
 8000140:	08002b69 	stmdaeq	r0, {r0, r3, r5, r6, r8, r9, fp, sp}
 8000144:	08002b69 	stmdaeq	r0, {r0, r3, r5, r6, r8, r9, fp, sp}
 8000148:	08002b69 	stmdaeq	r0, {r0, r3, r5, r6, r8, r9, fp, sp}
 800014c:	08002b69 	stmdaeq	r0, {r0, r3, r5, r6, r8, r9, fp, sp}
 8000150:	08002b69 	stmdaeq	r0, {r0, r3, r5, r6, r8, r9, fp, sp}
 8000154:	08002b69 	stmdaeq	r0, {r0, r3, r5, r6, r8, r9, fp, sp}
 8000158:	08002b69 	stmdaeq	r0, {r0, r3, r5, r6, r8, r9, fp, sp}
 800015c:	08002b69 	stmdaeq	r0, {r0, r3, r5, r6, r8, r9, fp, sp}
 8000160:	08002b69 	stmdaeq	r0, {r0, r3, r5, r6, r8, r9, fp, sp}
 8000164:	08002b69 	stmdaeq	r0, {r0, r3, r5, r6, r8, r9, fp, sp}
 8000168:	08002b69 	stmdaeq	r0, {r0, r3, r5, r6, r8, r9, fp, sp}
 800016c:	08002b69 	stmdaeq	r0, {r0, r3, r5, r6, r8, r9, fp, sp}
 8000170:	08002b69 	stmdaeq	r0, {r0, r3, r5, r6, r8, r9, fp, sp}
 8000174:	08002b69 	stmdaeq	r0, {r0, r3, r5, r6, r8, r9, fp, sp}
 8000178:	08002b69 	stmdaeq	r0, {r0, r3, r5, r6, r8, r9, fp, sp}
 800017c:	08002b69 	stmdaeq	r0, {r0, r3, r5, r6, r8, r9, fp, sp}
 8000180:	08002b69 	stmdaeq	r0, {r0, r3, r5, r6, r8, r9, fp, sp}
 8000184:	08002b69 	stmdaeq	r0, {r0, r3, r5, r6, r8, r9, fp, sp}
 8000188:	08002b69 	stmdaeq	r0, {r0, r3, r5, r6, r8, r9, fp, sp}
 800018c:	08002b69 	stmdaeq	r0, {r0, r3, r5, r6, r8, r9, fp, sp}
 8000190:	08002b69 	stmdaeq	r0, {r0, r3, r5, r6, r8, r9, fp, sp}
 8000194:	08002b69 	stmdaeq	r0, {r0, r3, r5, r6, r8, r9, fp, sp}
 8000198:	08002b69 	stmdaeq	r0, {r0, r3, r5, r6, r8, r9, fp, sp}
 800019c:	08002b69 	stmdaeq	r0, {r0, r3, r5, r6, r8, r9, fp, sp}
 80001a0:	08002b69 	stmdaeq	r0, {r0, r3, r5, r6, r8, r9, fp, sp}
 80001a4:	08002b69 	stmdaeq	r0, {r0, r3, r5, r6, r8, r9, fp, sp}
 80001a8:	08002b69 	stmdaeq	r0, {r0, r3, r5, r6, r8, r9, fp, sp}

080001ac <_ZN6msxmap19msx_interface_setupEv>:
const uint8_t REVBIT16[uint8_t(16)] = {0b0000, 0b1000, 0b0100, 0b1100, 0b0010, 0b1010, 0b0110, 0b1110, 
																			 0b0001, 0b1001, 0b0101, 0b1101, 0b0011, 0b1011, 0b0111, 0b1111};


void msxmap::msx_interface_setup(void)
{
 80001ac:	b510      	push	{r4, lr}
	//Set Alternate function
	gpio_set_af(Y0_port, GPIO_AF3, Y0_pin_id | Y1_pin_id | Y2_pin_id | Y3_pin_id);
 80001ae:	485e      	ldr	r0, [pc, #376]	; (8000328 <_ZN6msxmap19msx_interface_setupEv+0x17c>)
 80001b0:	f44f 72f0 	mov.w	r2, #480	; 0x1e0
 80001b4:	2103      	movs	r1, #3
 80001b6:	f002 fa4f 	bl	8002658 <gpio_set_af>
	gpio_set_af( X_port, GPIO_AF3, X0_pin_id | X1_pin_id | X2_pin_id | X3_pin_id | X4_pin_id | X5_pin_id | X6_pin_id | X7_pin_id);
 80001ba:	f24f 4207 	movw	r2, #62471	; 0xf407
 80001be:	485b      	ldr	r0, [pc, #364]	; (800032c <_ZN6msxmap19msx_interface_setupEv+0x180>)
 80001c0:	2103      	movs	r1, #3
 80001c2:	f002 fa49 	bl	8002658 <gpio_set_af>

	//Not the STM32 default, but it is the default MSX state: Release MSX keys;
	gpio_set(X7_port,
 80001c6:	4859      	ldr	r0, [pc, #356]	; (800032c <_ZN6msxmap19msx_interface_setupEv+0x180>)
 80001c8:	f24f 4107 	movw	r1, #62471	; 0xf407
 80001cc:	f002 f9ed 	bl	80025aa <gpio_set>
	X7_pin_id | X6_pin_id | X5_pin_id | X4_pin_id | X3_pin_id | X2_pin_id | X1_pin_id | X0_pin_id);

	//Init output port B15:8
	//gpio_mode_setup(X7_port, GPIO_MODE_OUTPUT_50_MHZ, GPIO_CNF_OUTPUT_OPENDRAIN, 
	//X7_pin_id | X6_pin_id | X5_pin_id | X4_pin_id | X3_pin_id | X2_pin_id | X1_pin_id | X0_pin_id);
	gpio_mode_setup(X_port, GPIO_MODE_OUTPUT, GPIO_PUPD_PULLUP,
 80001d0:	2201      	movs	r2, #1
 80001d2:	4611      	mov	r1, r2
 80001d4:	4855      	ldr	r0, [pc, #340]	; (800032c <_ZN6msxmap19msx_interface_setupEv+0x180>)
 80001d6:	f24f 4307 	movw	r3, #62471	; 0xf407
 80001da:	f002 fa02 	bl	80025e2 <gpio_mode_setup>
	X7_pin_id | X6_pin_id | X5_pin_id | X4_pin_id | X3_pin_id | X2_pin_id | X1_pin_id | X0_pin_id);
	gpio_set_output_options(X_port, GPIO_OTYPE_OD, GPIO_OSPEED_100MHZ,
 80001de:	f24f 4307 	movw	r3, #62471	; 0xf407
 80001e2:	2203      	movs	r2, #3
 80001e4:	2101      	movs	r1, #1
 80001e6:	4851      	ldr	r0, [pc, #324]	; (800032c <_ZN6msxmap19msx_interface_setupEv+0x180>)
 80001e8:	f002 fa1b 	bl	8002622 <gpio_set_output_options>
	X7_pin_id | X6_pin_id | X5_pin_id | X4_pin_id | X3_pin_id | X2_pin_id | X1_pin_id | X0_pin_id);

	//Init startup state of BSSR image to each Y scan
	for(uint8_t i = 0; i < 16; i++)
		x_bits[ i ] = X7_SET_OR | X6_SET_OR | X5_SET_OR | X4_SET_OR | X3_SET_OR | X2_SET_OR | X1_SET_OR | X0_SET_OR;
 80001ec:	4a50      	ldr	r2, [pc, #320]	; (8000330 <_ZN6msxmap19msx_interface_setupEv+0x184>)
	gpio_set_output_options(X_port, GPIO_OTYPE_OD, GPIO_OSPEED_100MHZ,
 80001ee:	2300      	movs	r3, #0
		x_bits[ i ] = X7_SET_OR | X6_SET_OR | X5_SET_OR | X4_SET_OR | X3_SET_OR | X2_SET_OR | X1_SET_OR | X0_SET_OR;
 80001f0:	f24f 4107 	movw	r1, #62471	; 0xf407
 80001f4:	f842 1023 	str.w	r1, [r2, r3, lsl #2]
	for(uint8_t i = 0; i < 16; i++)
 80001f8:	3301      	adds	r3, #1
 80001fa:	2b10      	cmp	r3, #16
 80001fc:	d1fa      	bne.n	80001f4 <_ZN6msxmap19msx_interface_setupEv+0x48>
	
	// Initialize receive ringbuffer
	msx_dispatch_kq_put=0;
 80001fe:	4b4d      	ldr	r3, [pc, #308]	; (8000334 <_ZN6msxmap19msx_interface_setupEv+0x188>)
 8000200:	2400      	movs	r4, #0
 8000202:	701c      	strb	r4, [r3, #0]
	msx_dispatch_kq_get=0;
 8000204:	4b4c      	ldr	r3, [pc, #304]	; (8000338 <_ZN6msxmap19msx_interface_setupEv+0x18c>)
 8000206:	701c      	strb	r4, [r3, #0]
	for(uint8_t i=0; i<MSX_DISP_QUEUE_SIZE; ++i)
	{
		msx_dispatch_keys_queue[i]=0;
 8000208:	4b4c      	ldr	r3, [pc, #304]	; (800033c <_ZN6msxmap19msx_interface_setupEv+0x190>)
 800020a:	4622      	mov	r2, r4
 800020c:	551a      	strb	r2, [r3, r4]
	for(uint8_t i=0; i<MSX_DISP_QUEUE_SIZE; ++i)
 800020e:	3401      	adds	r4, #1
 8000210:	2c10      	cmp	r4, #16
 8000212:	d1fb      	bne.n	800020c <_ZN6msxmap19msx_interface_setupEv+0x60>
	}
	
	// GPIO pins for MSX keyboard Y scan (PC3:0 of the MSX 8255 - PC3 MSX 8255 Pin 17)
	//gpio_set(Y3_port, Y3_pin_id); //pull up resistor
	gpio_mode_setup(Y3_port, GPIO_MODE_INPUT, GPIO_PUPD_PULLUP, Y3_pin_id); // PC3 (MSX 8255 Pin 17)
 8000214:	2320      	movs	r3, #32
 8000216:	2201      	movs	r2, #1
 8000218:	4843      	ldr	r0, [pc, #268]	; (8000328 <_ZN6msxmap19msx_interface_setupEv+0x17c>)
 800021a:	2100      	movs	r1, #0
 800021c:	f002 f9e1 	bl	80025e2 <gpio_mode_setup>
	exti_select_source(Y3_exti, Y3_port);
 8000220:	4941      	ldr	r1, [pc, #260]	; (8000328 <_ZN6msxmap19msx_interface_setupEv+0x17c>)
 8000222:	2020      	movs	r0, #32
 8000224:	f002 f91a 	bl	800245c <exti_select_source>
	exti_set_trigger(Y3_exti, EXTI_TRIGGER_BOTH); //Interrupt on change
 8000228:	2102      	movs	r1, #2
 800022a:	2020      	movs	r0, #32
 800022c:	f002 f8c6 	bl	80023bc <exti_set_trigger>
	exti_reset_request(Y3_exti);
 8000230:	2020      	movs	r0, #32
 8000232:	f002 f905 	bl	8002440 <exti_reset_request>
	exti_enable_request(Y3_exti);
 8000236:	2020      	movs	r0, #32
 8000238:	f002 f8e4 	bl	8002404 <exti_enable_request>
	gpio_port_config_lock(Y3_port, Y3_pin_id);
 800023c:	483a      	ldr	r0, [pc, #232]	; (8000328 <_ZN6msxmap19msx_interface_setupEv+0x17c>)
 800023e:	2120      	movs	r1, #32
 8000240:	f002 f9c7 	bl	80025d2 <gpio_port_config_lock>

	// GPIO pins for MSX keyboard Y scan (PC3:0 of the MSX 8255 - PC2 MSX 8255 Pin 16)
	//gpio_set(Y2_port, Y2_pin_id); //pull up resistor
	gpio_mode_setup(Y2_port, GPIO_MODE_INPUT, GPIO_PUPD_PULLUP, Y2_pin_id); // PC2 (MSX 8255 Pin 16)
 8000244:	2340      	movs	r3, #64	; 0x40
 8000246:	2201      	movs	r2, #1
 8000248:	4837      	ldr	r0, [pc, #220]	; (8000328 <_ZN6msxmap19msx_interface_setupEv+0x17c>)
 800024a:	2100      	movs	r1, #0
 800024c:	f002 f9c9 	bl	80025e2 <gpio_mode_setup>
	exti_select_source(Y2_exti, Y2_port);
 8000250:	4935      	ldr	r1, [pc, #212]	; (8000328 <_ZN6msxmap19msx_interface_setupEv+0x17c>)
 8000252:	2040      	movs	r0, #64	; 0x40
 8000254:	f002 f902 	bl	800245c <exti_select_source>
	exti_set_trigger(Y2_exti, EXTI_TRIGGER_BOTH); //Interrupt on change
 8000258:	2102      	movs	r1, #2
 800025a:	2040      	movs	r0, #64	; 0x40
 800025c:	f002 f8ae 	bl	80023bc <exti_set_trigger>
	exti_reset_request(Y2_exti);
 8000260:	2040      	movs	r0, #64	; 0x40
 8000262:	f002 f8ed 	bl	8002440 <exti_reset_request>
	exti_enable_request(Y2_exti);
 8000266:	2040      	movs	r0, #64	; 0x40
 8000268:	f002 f8cc 	bl	8002404 <exti_enable_request>
	gpio_port_config_lock(Y2_port, Y2_pin_id);
 800026c:	482e      	ldr	r0, [pc, #184]	; (8000328 <_ZN6msxmap19msx_interface_setupEv+0x17c>)
 800026e:	2140      	movs	r1, #64	; 0x40
 8000270:	f002 f9af 	bl	80025d2 <gpio_port_config_lock>

	// GPIO pins for MSX keyboard Y scan (PC3:0 of the MSX 8255 - PC1 MSX 8255 Pin 15)
	//gpio_set(Y1_port, Y1_pin_id); //pull up resistor
	gpio_mode_setup(Y1_port, GPIO_MODE_INPUT, GPIO_PUPD_PULLUP, Y1_pin_id); // PC1 (MSX 8255 Pin 15)
 8000274:	2380      	movs	r3, #128	; 0x80
 8000276:	2201      	movs	r2, #1
 8000278:	482b      	ldr	r0, [pc, #172]	; (8000328 <_ZN6msxmap19msx_interface_setupEv+0x17c>)
 800027a:	2100      	movs	r1, #0
 800027c:	f002 f9b1 	bl	80025e2 <gpio_mode_setup>
	exti_select_source(Y1_exti, Y1_port);
 8000280:	4929      	ldr	r1, [pc, #164]	; (8000328 <_ZN6msxmap19msx_interface_setupEv+0x17c>)
 8000282:	2080      	movs	r0, #128	; 0x80
 8000284:	f002 f8ea 	bl	800245c <exti_select_source>
	exti_set_trigger(Y1_exti, EXTI_TRIGGER_BOTH); //Interrupt on change
 8000288:	2102      	movs	r1, #2
 800028a:	2080      	movs	r0, #128	; 0x80
 800028c:	f002 f896 	bl	80023bc <exti_set_trigger>
	exti_reset_request(Y1_exti);
 8000290:	2080      	movs	r0, #128	; 0x80
 8000292:	f002 f8d5 	bl	8002440 <exti_reset_request>
	exti_enable_request(Y1_exti);
 8000296:	2080      	movs	r0, #128	; 0x80
 8000298:	f002 f8b4 	bl	8002404 <exti_enable_request>
	gpio_port_config_lock(Y1_port, Y1_pin_id);
 800029c:	4822      	ldr	r0, [pc, #136]	; (8000328 <_ZN6msxmap19msx_interface_setupEv+0x17c>)
 800029e:	2180      	movs	r1, #128	; 0x80
 80002a0:	f002 f997 	bl	80025d2 <gpio_port_config_lock>

	// GPIO pins for MSX keyboard Y scan (PC3:0 of the MSX 8255 - PC0 MSX 8255 Pin 14)
	//gpio_set(Y0_port, Y0_pin_id); //pull up resistor
	gpio_mode_setup(Y0_port, GPIO_MODE_INPUT, GPIO_PUPD_PULLUP, Y0_pin_id); // PC0 (MSX 8255 Pin 14)
 80002a4:	f44f 7380 	mov.w	r3, #256	; 0x100
 80002a8:	2201      	movs	r2, #1
 80002aa:	481f      	ldr	r0, [pc, #124]	; (8000328 <_ZN6msxmap19msx_interface_setupEv+0x17c>)
 80002ac:	2100      	movs	r1, #0
 80002ae:	f002 f998 	bl	80025e2 <gpio_mode_setup>
	exti_select_source(Y0_exti, Y0_port);
 80002b2:	491d      	ldr	r1, [pc, #116]	; (8000328 <_ZN6msxmap19msx_interface_setupEv+0x17c>)
 80002b4:	f44f 7080 	mov.w	r0, #256	; 0x100
 80002b8:	f002 f8d0 	bl	800245c <exti_select_source>
	exti_set_trigger(Y0_exti, EXTI_TRIGGER_BOTH); //Interrupt on change
 80002bc:	2102      	movs	r1, #2
 80002be:	f44f 7080 	mov.w	r0, #256	; 0x100
 80002c2:	f002 f87b 	bl	80023bc <exti_set_trigger>
	exti_reset_request(Y0_exti);
 80002c6:	f44f 7080 	mov.w	r0, #256	; 0x100
 80002ca:	f002 f8b9 	bl	8002440 <exti_reset_request>
	exti_enable_request(Y0_exti);
 80002ce:	f44f 7080 	mov.w	r0, #256	; 0x100
 80002d2:	f002 f897 	bl	8002404 <exti_enable_request>
	gpio_port_config_lock(Y0_port, Y0_pin_id);
 80002d6:	4814      	ldr	r0, [pc, #80]	; (8000328 <_ZN6msxmap19msx_interface_setupEv+0x17c>)
 80002d8:	f44f 7180 	mov.w	r1, #256	; 0x100
 80002dc:	f002 f979 	bl	80025d2 <gpio_port_config_lock>
	// GPIO pins for MSX keyboard Y scan (PC3:0 of the MSX 8255 - PC0 MSX 8255 Pin 14),
	// CAP_LED and KANA/Cyrillic_LED (mapped to scroll lock) to replicate in PS/2 keyboard
	// Set to input and enable internal pulldown

	// CAPS_LED
	gpio_mode_setup(CAPSLOCK_port, GPIO_MODE_INPUT, GPIO_PUPD_PULLUP, CAPSLOCK_pin_id); // CAP_LED (MSX 8255 Pin 11)
 80002e0:	4623      	mov	r3, r4
 80002e2:	2201      	movs	r2, #1
 80002e4:	4811      	ldr	r0, [pc, #68]	; (800032c <_ZN6msxmap19msx_interface_setupEv+0x180>)
 80002e6:	2100      	movs	r1, #0
 80002e8:	f002 f97b 	bl	80025e2 <gpio_mode_setup>
	gpio_port_config_lock(CAPSLOCK_port, CAPSLOCK_pin_id);
 80002ec:	4621      	mov	r1, r4
 80002ee:	480f      	ldr	r0, [pc, #60]	; (800032c <_ZN6msxmap19msx_interface_setupEv+0x180>)
 80002f0:	f002 f96f 	bl	80025d2 <gpio_port_config_lock>

	// Kana LED
	gpio_mode_setup(KANA_port, GPIO_MODE_INPUT, GPIO_PUPD_PULLUP, KANA_pin_id); // KANA_LED - Mapeado para Scroll Lock
 80002f4:	2340      	movs	r3, #64	; 0x40
 80002f6:	2201      	movs	r2, #1
 80002f8:	480c      	ldr	r0, [pc, #48]	; (800032c <_ZN6msxmap19msx_interface_setupEv+0x180>)
 80002fa:	2100      	movs	r1, #0
 80002fc:	f002 f971 	bl	80025e2 <gpio_mode_setup>
	gpio_set(KANA_port, KANA_pin_id); //pull up resistor
 8000300:	480a      	ldr	r0, [pc, #40]	; (800032c <_ZN6msxmap19msx_interface_setupEv+0x180>)
 8000302:	2140      	movs	r1, #64	; 0x40
 8000304:	f002 f951 	bl	80025aa <gpio_set>
	gpio_port_config_lock(KANA_port, KANA_pin_id);
 8000308:	2140      	movs	r1, #64	; 0x40
 800030a:	4808      	ldr	r0, [pc, #32]	; (800032c <_ZN6msxmap19msx_interface_setupEv+0x180>)
 800030c:	f002 f961 	bl	80025d2 <gpio_port_config_lock>

	// Enable EXTI9_5 interrupt. (for Y - bits 0 and 1)
	nvic_enable_irq(NVIC_EXTI9_5_IRQ);
 8000310:	2017      	movs	r0, #23
 8000312:	f002 fca1 	bl	8002c58 <nvic_enable_irq>

	//Highest priority to avoid interrupt Y scan
	nvic_set_priority(NVIC_EXTI9_5_IRQ, 10); 		//Y0 and Y1
 8000316:	210a      	movs	r1, #10
 8000318:	2017      	movs	r0, #23
 800031a:	f002 fcab 	bl	8002c74 <nvic_set_priority>

	//Check the Database version, get y_dummy, ps2numlockstate and enable_xon_xoff
	check_database();
}
 800031e:	e8bd 4010 	ldmia.w	sp!, {r4, lr}
	check_database();
 8000322:	f001 b91b 	b.w	800155c <check_database>
 8000326:	bf00      	nop
 8000328:	40020000 	andmi	r0, r2, r0
 800032c:	40020400 	andmi	r0, r2, r0, lsl #8
 8000330:	200004b0 			; <UNDEFINED> instruction: 0x200004b0
 8000334:	20000465 	andcs	r0, r0, r5, ror #8
 8000338:	20000464 	andcs	r0, r0, r4, ror #8
 800033c:	20000449 	andcs	r0, r0, r9, asr #8

08000340 <_ZN6msxmap36available_msx_disp_keys_queue_bufferEv>:
//Input: void
//Output: True if there is char available in input buffer or False if none
bool msxmap::available_msx_disp_keys_queue_buffer(void)
{
	uint8_t i = msx_dispatch_kq_get;
	if(i == msx_dispatch_kq_put)
 8000340:	4a03      	ldr	r2, [pc, #12]	; (8000350 <_ZN6msxmap36available_msx_disp_keys_queue_bufferEv+0x10>)
	uint8_t i = msx_dispatch_kq_get;
 8000342:	4b04      	ldr	r3, [pc, #16]	; (8000354 <_ZN6msxmap36available_msx_disp_keys_queue_bufferEv+0x14>)
 8000344:	781b      	ldrb	r3, [r3, #0]
	if(i == msx_dispatch_kq_put)
 8000346:	7810      	ldrb	r0, [r2, #0]
		//No char in buffer
		return false;
	else
		return true;
}
 8000348:	1ac0      	subs	r0, r0, r3
 800034a:	bf18      	it	ne
 800034c:	2001      	movne	r0, #1
 800034e:	4770      	bx	lr
 8000350:	20000465 	andcs	r0, r0, r5, ror #8
 8000354:	20000464 	andcs	r0, r0, r4, ror #8

08000358 <_ZN6msxmap30get_msx_disp_keys_queue_bufferEv>:
//Outut: Available byte read
uint8_t msxmap::get_msx_disp_keys_queue_buffer(void)
{
	uint8_t i, result;

	i = msx_dispatch_kq_get;
 8000358:	4a08      	ldr	r2, [pc, #32]	; (800037c <_ZN6msxmap30get_msx_disp_keys_queue_bufferEv+0x24>)
	if(i == msx_dispatch_kq_put)
 800035a:	4809      	ldr	r0, [pc, #36]	; (8000380 <_ZN6msxmap30get_msx_disp_keys_queue_bufferEv+0x28>)
	i = msx_dispatch_kq_get;
 800035c:	7811      	ldrb	r1, [r2, #0]
	if(i == msx_dispatch_kq_put)
 800035e:	7800      	ldrb	r0, [r0, #0]
 8000360:	4288      	cmp	r0, r1
	i = msx_dispatch_kq_get;
 8000362:	b2cb      	uxtb	r3, r1
		//No char in buffer
		return 0;
	result = msx_dispatch_keys_queue[i];
 8000364:	bf1f      	itttt	ne
 8000366:	4907      	ldrne	r1, [pc, #28]	; (8000384 <_ZN6msxmap30get_msx_disp_keys_queue_bufferEv+0x2c>)
 8000368:	5cc8      	ldrbne	r0, [r1, r3]
	i++;
 800036a:	3301      	addne	r3, #1
	msx_dispatch_kq_get = i & (uint8_t)(MSX_DISP_QUEUE_SIZE- 1); //if(i) >= (uint16_t)MSX_DISP_QUEUE_SIZE)	i = 0;
 800036c:	f003 030f 	andne.w	r3, r3, #15
	result = msx_dispatch_keys_queue[i];
 8000370:	bf1a      	itte	ne
 8000372:	b2c0      	uxtbne	r0, r0
	msx_dispatch_kq_get = i & (uint8_t)(MSX_DISP_QUEUE_SIZE- 1); //if(i) >= (uint16_t)MSX_DISP_QUEUE_SIZE)	i = 0;
 8000374:	7013      	strbne	r3, [r2, #0]
		return 0;
 8000376:	2000      	moveq	r0, #0
	return result;
}
 8000378:	4770      	bx	lr
 800037a:	bf00      	nop
 800037c:	20000464 	andcs	r0, r0, r4, ror #8
 8000380:	20000465 	andcs	r0, r0, r5, ror #8
 8000384:	20000449 	andcs	r0, r0, r9, asr #8

08000388 <_ZN6msxmap30put_msx_disp_keys_queue_bufferEh>:

/*Put a MSX Key (byte) into a buffer to get it mounted to x_bits
* Input: uint8_t as parameter
* Output: Total number of bytes in buffer, or ZERO if buffer was already full.*/
uint8_t msxmap::put_msx_disp_keys_queue_buffer(uint8_t data_word)
{
 8000388:	b530      	push	{r4, r5, lr}
	uint8_t i, i_next;
	
	i = msx_dispatch_kq_put;
 800038a:	4a0a      	ldr	r2, [pc, #40]	; (80003b4 <_ZN6msxmap30put_msx_disp_keys_queue_bufferEh+0x2c>)
	i_next = i + 1;
	i_next &= (uint8_t)(MSX_DISP_QUEUE_SIZE - 1);
	if (i_next != msx_dispatch_kq_get)
 800038c:	4c0a      	ldr	r4, [pc, #40]	; (80003b8 <_ZN6msxmap30put_msx_disp_keys_queue_bufferEh+0x30>)
	i = msx_dispatch_kq_put;
 800038e:	7813      	ldrb	r3, [r2, #0]
	if (i_next != msx_dispatch_kq_get)
 8000390:	7825      	ldrb	r5, [r4, #0]
	i = msx_dispatch_kq_put;
 8000392:	b2d8      	uxtb	r0, r3
	i_next = i + 1;
 8000394:	3301      	adds	r3, #1
	i_next &= (uint8_t)(MSX_DISP_QUEUE_SIZE - 1);
 8000396:	f003 030f 	and.w	r3, r3, #15
	if (i_next != msx_dispatch_kq_get)
 800039a:	429d      	cmp	r5, r3
	{
		msx_dispatch_keys_queue[i] = data_word;
 800039c:	bf1f      	itttt	ne
 800039e:	4d07      	ldrne	r5, [pc, #28]	; (80003bc <_ZN6msxmap30put_msx_disp_keys_queue_bufferEh+0x34>)
 80003a0:	5429      	strbne	r1, [r5, r0]
		msx_dispatch_kq_put = i_next;
 80003a2:	7013      	strbne	r3, [r2, #0]
		return (uint8_t)(MSX_DISP_QUEUE_SIZE - msx_dispatch_kq_get + msx_dispatch_kq_put) & (uint8_t)(MSX_DISP_QUEUE_SIZE - 1);
 80003a4:	7810      	ldrbne	r0, [r2, #0]
 80003a6:	bf1d      	ittte	ne
 80003a8:	7823      	ldrbne	r3, [r4, #0]
 80003aa:	1ac0      	subne	r0, r0, r3
 80003ac:	f000 000f 	andne.w	r0, r0, #15
	}
	else 
		return 0;
 80003b0:	2000      	moveq	r0, #0
}
 80003b2:	bd30      	pop	{r4, r5, pc}
 80003b4:	20000465 	andcs	r0, r0, r5, ror #8
 80003b8:	20000464 	andcs	r0, r0, r4, ror #8
 80003bc:	20000449 	andcs	r0, r0, r9, asr #8

080003c0 <_ZN6msxmap40compute_x_bits_and_check_interrupt_stuckEhhb>:
	}
}

void msxmap::compute_x_bits_and_check_interrupt_stuck (
	volatile uint8_t y_local, volatile uint8_t x_local, volatile bool x_local_setb)
{
 80003c0:	b513      	push	{r0, r1, r4, lr}
 80003c2:	f88d 1007 	strb.w	r1, [sp, #7]
 80003c6:	f88d 2006 	strb.w	r2, [sp, #6]
 80003ca:	f88d 3005 	strb.w	r3, [sp, #5]
	uint16_t msx_Y_scan;
	switch (x_local)
 80003ce:	f89d 3006 	ldrb.w	r3, [sp, #6]
 80003d2:	2b07      	cmp	r3, #7
 80003d4:	d81c      	bhi.n	8000410 <_ZN6msxmap40compute_x_bits_and_check_interrupt_stuckEhhb+0x50>
 80003d6:	e8df f013 	tbh	[pc, r3, lsl #1]
 80003da:	004a0008 	subeq	r0, sl, r8
 80003de:	00880069 	addeq	r0, r8, r9, rrx
 80003e2:	00c600a7 	sbceq	r0, r6, r7, lsr #1
 80003e6:	010400e5 	smlatteq	r4, r5, r0, r0
	{
		case 0:
			if (x_local_setb)	//key release
 80003ea:	f89d 3005 	ldrb.w	r3, [sp, #5]
 80003ee:	498d      	ldr	r1, [pc, #564]	; (8000624 <_ZN6msxmap40compute_x_bits_and_check_interrupt_stuckEhhb+0x264>)
 80003f0:	4a8d      	ldr	r2, [pc, #564]	; (8000628 <_ZN6msxmap40compute_x_bits_and_check_interrupt_stuckEhhb+0x268>)
 80003f2:	b37b      	cbz	r3, 8000454 <_ZN6msxmap40compute_x_bits_and_check_interrupt_stuckEhhb+0x94>
			{
				x_bits[REVBIT16[y_local]] = (x_bits[REVBIT16[y_local]] | X0_SET_OR) & X0_SET_AND;
 80003f4:	f89d 3007 	ldrb.w	r3, [sp, #7]
 80003f8:	5ccb      	ldrb	r3, [r1, r3]
 80003fa:	f852 3023 	ldr.w	r3, [r2, r3, lsl #2]
 80003fe:	f89d 0007 	ldrb.w	r0, [sp, #7]
 8000402:	f023 2310 	bic.w	r3, r3, #268439552	; 0x10001000
 8000406:	5c09      	ldrb	r1, [r1, r0]
 8000408:	f443 5380 	orr.w	r3, r3, #4096	; 0x1000
				x_bits[REVBIT16[y_local]] = (x_bits[REVBIT16[y_local]] | X7_SET_OR) & X7_SET_AND;
				break;
			}
			else
			{
				x_bits[REVBIT16[y_local]] = (x_bits[REVBIT16[y_local]] & X7_CLEAR_AND) | X7_CLEAR_OR;
 800040c:	f842 3021 	str.w	r3, [r2, r1, lsl #2]
				break;
			}
	}

	//ver se o tempo em que foi atualizado o dado de Linha X da Coluna Y, com a finalidade de atualizar teclas mesmo sem o PPI ser atualizado. 
	if (systicks - previous_y_systick[y_local] > MAX_TIME_OF_IDLE_KEYSCAN_SYSTICKS)
 8000410:	f89d 3007 	ldrb.w	r3, [sp, #7]
 8000414:	4a85      	ldr	r2, [pc, #532]	; (800062c <_ZN6msxmap40compute_x_bits_and_check_interrupt_stuckEhhb+0x26c>)
 8000416:	b2db      	uxtb	r3, r3
 8000418:	f852 2023 	ldr.w	r2, [r2, r3, lsl #2]
 800041c:	4b84      	ldr	r3, [pc, #528]	; (8000630 <_ZN6msxmap40compute_x_bits_and_check_interrupt_stuckEhhb+0x270>)
 800041e:	681b      	ldr	r3, [r3, #0]
 8000420:	1a9b      	subs	r3, r3, r2
 8000422:	2b05      	cmp	r3, #5
 8000424:	f240 80fc 	bls.w	8000620 <_ZN6msxmap40compute_x_bits_and_check_interrupt_stuckEhhb+0x260>
		//MSX is not updating Y, so updating keystrokes by interrupts is not working
		//Verify the actual hardware Y_SCAN
		// First I have to disable Y_SCAN interrupts, to avoid misspelling due to updates
		exti_disable_request(Y3_exti | Y2_exti | Y1_exti | Y0_exti);
		// Read the MSX keyboard Y scan through GPIO pins A5:A8, mask to 0 other bits and rotate right 5
		msx_Y_scan = (gpio_port_read(GPIOA) & 0x01E0) >> 5;
 8000428:	4c82      	ldr	r4, [pc, #520]	; (8000634 <_ZN6msxmap40compute_x_bits_and_check_interrupt_stuckEhhb+0x274>)
		exti_disable_request(Y3_exti | Y2_exti | Y1_exti | Y0_exti);
 800042a:	f44f 70f0 	mov.w	r0, #480	; 0x1e0
 800042e:	f001 fff7 	bl	8002420 <exti_disable_request>
		msx_Y_scan = (gpio_port_read(GPIOA) & 0x01E0) >> 5;
 8000432:	4620      	mov	r0, r4
 8000434:	f002 f8ca 	bl	80025cc <gpio_port_read>
		{
			GPIOB_BSRR = x_bits[msx_Y_scan]; //Atomic GPIOB update => Release and press MSX keys for this column
 8000438:	4b7b      	ldr	r3, [pc, #492]	; (8000628 <_ZN6msxmap40compute_x_bits_and_check_interrupt_stuckEhhb+0x268>)
 800043a:	f3c0 1043 	ubfx	r0, r0, #5, #4
 800043e:	f853 3020 	ldr.w	r3, [r3, r0, lsl #2]
 8000442:	f8c4 3418 	str.w	r3, [r4, #1048]	; 0x418
			//update time marker for previous_y_systick[y_local]
			//previous_y_systick[y_local] = systicks;
		}
		//Than reenable Y_SCAN interrupts
		exti_enable_request(Y0_exti | Y1_exti | Y2_exti | Y3_exti);
 8000446:	f44f 70f0 	mov.w	r0, #480	; 0x1e0
	}
}
 800044a:	b002      	add	sp, #8
 800044c:	e8bd 4010 	ldmia.w	sp!, {r4, lr}
		exti_enable_request(Y0_exti | Y1_exti | Y2_exti | Y3_exti);
 8000450:	f001 bfd8 	b.w	8002404 <exti_enable_request>
				x_bits[REVBIT16[y_local]] = (x_bits[REVBIT16[y_local]] & X0_CLEAR_AND) | X0_CLEAR_OR;
 8000454:	f89d 3007 	ldrb.w	r3, [sp, #7]
 8000458:	5ccb      	ldrb	r3, [r1, r3]
 800045a:	f852 3023 	ldr.w	r3, [r2, r3, lsl #2]
 800045e:	f89d 0007 	ldrb.w	r0, [sp, #7]
 8000462:	f023 2310 	bic.w	r3, r3, #268439552	; 0x10001000
 8000466:	5c09      	ldrb	r1, [r1, r0]
 8000468:	f043 5380 	orr.w	r3, r3, #268435456	; 0x10000000
 800046c:	e7ce      	b.n	800040c <_ZN6msxmap40compute_x_bits_and_check_interrupt_stuckEhhb+0x4c>
			if (x_local_setb)	//key release
 800046e:	f89d 3005 	ldrb.w	r3, [sp, #5]
 8000472:	496c      	ldr	r1, [pc, #432]	; (8000624 <_ZN6msxmap40compute_x_bits_and_check_interrupt_stuckEhhb+0x264>)
 8000474:	4a6c      	ldr	r2, [pc, #432]	; (8000628 <_ZN6msxmap40compute_x_bits_and_check_interrupt_stuckEhhb+0x268>)
 8000476:	b163      	cbz	r3, 8000492 <_ZN6msxmap40compute_x_bits_and_check_interrupt_stuckEhhb+0xd2>
				x_bits[REVBIT16[y_local]] = (x_bits[REVBIT16[y_local]] | X1_SET_OR) & X1_SET_AND;
 8000478:	f89d 3007 	ldrb.w	r3, [sp, #7]
 800047c:	5ccb      	ldrb	r3, [r1, r3]
 800047e:	f852 3023 	ldr.w	r3, [r2, r3, lsl #2]
 8000482:	f89d 0007 	ldrb.w	r0, [sp, #7]
 8000486:	f023 2304 	bic.w	r3, r3, #67109888	; 0x4000400
 800048a:	5c09      	ldrb	r1, [r1, r0]
 800048c:	f443 6380 	orr.w	r3, r3, #1024	; 0x400
 8000490:	e7bc      	b.n	800040c <_ZN6msxmap40compute_x_bits_and_check_interrupt_stuckEhhb+0x4c>
				x_bits[REVBIT16[y_local]] = (x_bits[REVBIT16[y_local]] & X1_CLEAR_AND) | X1_CLEAR_OR;
 8000492:	f89d 3007 	ldrb.w	r3, [sp, #7]
 8000496:	5ccb      	ldrb	r3, [r1, r3]
 8000498:	f852 3023 	ldr.w	r3, [r2, r3, lsl #2]
 800049c:	f89d 0007 	ldrb.w	r0, [sp, #7]
 80004a0:	f023 2304 	bic.w	r3, r3, #67109888	; 0x4000400
 80004a4:	5c09      	ldrb	r1, [r1, r0]
 80004a6:	f043 6380 	orr.w	r3, r3, #67108864	; 0x4000000
 80004aa:	e7af      	b.n	800040c <_ZN6msxmap40compute_x_bits_and_check_interrupt_stuckEhhb+0x4c>
			if (x_local_setb)
 80004ac:	f89d 3005 	ldrb.w	r3, [sp, #5]
 80004b0:	495c      	ldr	r1, [pc, #368]	; (8000624 <_ZN6msxmap40compute_x_bits_and_check_interrupt_stuckEhhb+0x264>)
 80004b2:	4a5d      	ldr	r2, [pc, #372]	; (8000628 <_ZN6msxmap40compute_x_bits_and_check_interrupt_stuckEhhb+0x268>)
 80004b4:	b163      	cbz	r3, 80004d0 <_ZN6msxmap40compute_x_bits_and_check_interrupt_stuckEhhb+0x110>
				x_bits[REVBIT16[y_local]] = (x_bits[REVBIT16[y_local]] | X2_SET_OR) & X2_SET_AND;
 80004b6:	f89d 3007 	ldrb.w	r3, [sp, #7]
 80004ba:	5ccb      	ldrb	r3, [r1, r3]
 80004bc:	f852 3023 	ldr.w	r3, [r2, r3, lsl #2]
 80004c0:	f89d 0007 	ldrb.w	r0, [sp, #7]
 80004c4:	f023 2320 	bic.w	r3, r3, #536879104	; 0x20002000
 80004c8:	5c09      	ldrb	r1, [r1, r0]
 80004ca:	f443 5300 	orr.w	r3, r3, #8192	; 0x2000
 80004ce:	e79d      	b.n	800040c <_ZN6msxmap40compute_x_bits_and_check_interrupt_stuckEhhb+0x4c>
				x_bits[REVBIT16[y_local]] = (x_bits[REVBIT16[y_local]] & X2_CLEAR_AND) | X2_CLEAR_OR;
 80004d0:	f89d 3007 	ldrb.w	r3, [sp, #7]
 80004d4:	5ccb      	ldrb	r3, [r1, r3]
 80004d6:	f852 3023 	ldr.w	r3, [r2, r3, lsl #2]
 80004da:	f89d 0007 	ldrb.w	r0, [sp, #7]
 80004de:	f023 2320 	bic.w	r3, r3, #536879104	; 0x20002000
 80004e2:	5c09      	ldrb	r1, [r1, r0]
 80004e4:	f043 5300 	orr.w	r3, r3, #536870912	; 0x20000000
 80004e8:	e790      	b.n	800040c <_ZN6msxmap40compute_x_bits_and_check_interrupt_stuckEhhb+0x4c>
			if (x_local_setb)
 80004ea:	f89d 3005 	ldrb.w	r3, [sp, #5]
 80004ee:	494d      	ldr	r1, [pc, #308]	; (8000624 <_ZN6msxmap40compute_x_bits_and_check_interrupt_stuckEhhb+0x264>)
 80004f0:	4a4d      	ldr	r2, [pc, #308]	; (8000628 <_ZN6msxmap40compute_x_bits_and_check_interrupt_stuckEhhb+0x268>)
 80004f2:	b163      	cbz	r3, 800050e <_ZN6msxmap40compute_x_bits_and_check_interrupt_stuckEhhb+0x14e>
				x_bits[REVBIT16[y_local]] = (x_bits[REVBIT16[y_local]] | X3_SET_OR) & X3_SET_AND;
 80004f4:	f89d 3007 	ldrb.w	r3, [sp, #7]
 80004f8:	5ccb      	ldrb	r3, [r1, r3]
 80004fa:	f852 3023 	ldr.w	r3, [r2, r3, lsl #2]
 80004fe:	f89d 0007 	ldrb.w	r0, [sp, #7]
 8000502:	f023 1304 	bic.w	r3, r3, #262148	; 0x40004
 8000506:	5c09      	ldrb	r1, [r1, r0]
 8000508:	f043 0304 	orr.w	r3, r3, #4
 800050c:	e77e      	b.n	800040c <_ZN6msxmap40compute_x_bits_and_check_interrupt_stuckEhhb+0x4c>
				x_bits[REVBIT16[y_local]] = (x_bits[REVBIT16[y_local]] & X3_CLEAR_AND) | X3_CLEAR_OR;
 800050e:	f89d 3007 	ldrb.w	r3, [sp, #7]
 8000512:	5ccb      	ldrb	r3, [r1, r3]
 8000514:	f852 3023 	ldr.w	r3, [r2, r3, lsl #2]
 8000518:	f89d 0007 	ldrb.w	r0, [sp, #7]
 800051c:	f023 1304 	bic.w	r3, r3, #262148	; 0x40004
 8000520:	5c09      	ldrb	r1, [r1, r0]
 8000522:	f443 2380 	orr.w	r3, r3, #262144	; 0x40000
 8000526:	e771      	b.n	800040c <_ZN6msxmap40compute_x_bits_and_check_interrupt_stuckEhhb+0x4c>
			if (x_local_setb)
 8000528:	f89d 3005 	ldrb.w	r3, [sp, #5]
 800052c:	493d      	ldr	r1, [pc, #244]	; (8000624 <_ZN6msxmap40compute_x_bits_and_check_interrupt_stuckEhhb+0x264>)
 800052e:	4a3e      	ldr	r2, [pc, #248]	; (8000628 <_ZN6msxmap40compute_x_bits_and_check_interrupt_stuckEhhb+0x268>)
 8000530:	b163      	cbz	r3, 800054c <_ZN6msxmap40compute_x_bits_and_check_interrupt_stuckEhhb+0x18c>
				x_bits[REVBIT16[y_local]] = (x_bits[REVBIT16[y_local]] | X4_SET_OR) & X4_SET_AND;
 8000532:	f89d 3007 	ldrb.w	r3, [sp, #7]
 8000536:	5ccb      	ldrb	r3, [r1, r3]
 8000538:	f852 3023 	ldr.w	r3, [r2, r3, lsl #2]
 800053c:	f89d 0007 	ldrb.w	r0, [sp, #7]
 8000540:	f023 2340 	bic.w	r3, r3, #1073758208	; 0x40004000
 8000544:	5c09      	ldrb	r1, [r1, r0]
 8000546:	f443 4380 	orr.w	r3, r3, #16384	; 0x4000
 800054a:	e75f      	b.n	800040c <_ZN6msxmap40compute_x_bits_and_check_interrupt_stuckEhhb+0x4c>
				x_bits[REVBIT16[y_local]] = (x_bits[REVBIT16[y_local]] & X4_CLEAR_AND) | X4_CLEAR_OR;
 800054c:	f89d 3007 	ldrb.w	r3, [sp, #7]
 8000550:	5ccb      	ldrb	r3, [r1, r3]
 8000552:	f852 3023 	ldr.w	r3, [r2, r3, lsl #2]
 8000556:	f89d 0007 	ldrb.w	r0, [sp, #7]
 800055a:	f023 2340 	bic.w	r3, r3, #1073758208	; 0x40004000
 800055e:	5c09      	ldrb	r1, [r1, r0]
 8000560:	f043 4380 	orr.w	r3, r3, #1073741824	; 0x40000000
 8000564:	e752      	b.n	800040c <_ZN6msxmap40compute_x_bits_and_check_interrupt_stuckEhhb+0x4c>
			if (x_local_setb)
 8000566:	f89d 3005 	ldrb.w	r3, [sp, #5]
 800056a:	492e      	ldr	r1, [pc, #184]	; (8000624 <_ZN6msxmap40compute_x_bits_and_check_interrupt_stuckEhhb+0x264>)
 800056c:	4a2e      	ldr	r2, [pc, #184]	; (8000628 <_ZN6msxmap40compute_x_bits_and_check_interrupt_stuckEhhb+0x268>)
 800056e:	b163      	cbz	r3, 800058a <_ZN6msxmap40compute_x_bits_and_check_interrupt_stuckEhhb+0x1ca>
				x_bits[REVBIT16[y_local]] = (x_bits[REVBIT16[y_local]] | X5_SET_OR) & X5_SET_AND;
 8000570:	f89d 3007 	ldrb.w	r3, [sp, #7]
 8000574:	5ccb      	ldrb	r3, [r1, r3]
 8000576:	f852 3023 	ldr.w	r3, [r2, r3, lsl #2]
 800057a:	f89d 0007 	ldrb.w	r0, [sp, #7]
 800057e:	f023 1302 	bic.w	r3, r3, #131074	; 0x20002
 8000582:	5c09      	ldrb	r1, [r1, r0]
 8000584:	f043 0302 	orr.w	r3, r3, #2
 8000588:	e740      	b.n	800040c <_ZN6msxmap40compute_x_bits_and_check_interrupt_stuckEhhb+0x4c>
				x_bits[REVBIT16[y_local]] = (x_bits[REVBIT16[y_local]] & X5_CLEAR_AND) | X5_CLEAR_OR;
 800058a:	f89d 3007 	ldrb.w	r3, [sp, #7]
 800058e:	5ccb      	ldrb	r3, [r1, r3]
 8000590:	f852 3023 	ldr.w	r3, [r2, r3, lsl #2]
 8000594:	f89d 0007 	ldrb.w	r0, [sp, #7]
 8000598:	f023 1302 	bic.w	r3, r3, #131074	; 0x20002
 800059c:	5c09      	ldrb	r1, [r1, r0]
 800059e:	f443 3300 	orr.w	r3, r3, #131072	; 0x20000
 80005a2:	e733      	b.n	800040c <_ZN6msxmap40compute_x_bits_and_check_interrupt_stuckEhhb+0x4c>
			if (x_local_setb)
 80005a4:	f89d 3005 	ldrb.w	r3, [sp, #5]
 80005a8:	491e      	ldr	r1, [pc, #120]	; (8000624 <_ZN6msxmap40compute_x_bits_and_check_interrupt_stuckEhhb+0x264>)
 80005aa:	4a1f      	ldr	r2, [pc, #124]	; (8000628 <_ZN6msxmap40compute_x_bits_and_check_interrupt_stuckEhhb+0x268>)
 80005ac:	b163      	cbz	r3, 80005c8 <_ZN6msxmap40compute_x_bits_and_check_interrupt_stuckEhhb+0x208>
				x_bits[REVBIT16[y_local]] = (x_bits[REVBIT16[y_local]] | X6_SET_OR) & X6_SET_AND;
 80005ae:	f89d 3007 	ldrb.w	r3, [sp, #7]
 80005b2:	5ccb      	ldrb	r3, [r1, r3]
 80005b4:	f852 3023 	ldr.w	r3, [r2, r3, lsl #2]
 80005b8:	f89d 0007 	ldrb.w	r0, [sp, #7]
 80005bc:	f023 2380 	bic.w	r3, r3, #2147516416	; 0x80008000
 80005c0:	5c09      	ldrb	r1, [r1, r0]
 80005c2:	f443 4300 	orr.w	r3, r3, #32768	; 0x8000
 80005c6:	e721      	b.n	800040c <_ZN6msxmap40compute_x_bits_and_check_interrupt_stuckEhhb+0x4c>
				x_bits[REVBIT16[y_local]] = (x_bits[REVBIT16[y_local]] & X6_CLEAR_AND) | X6_CLEAR_OR;
 80005c8:	f89d 3007 	ldrb.w	r3, [sp, #7]
 80005cc:	5ccb      	ldrb	r3, [r1, r3]
 80005ce:	f852 3023 	ldr.w	r3, [r2, r3, lsl #2]
 80005d2:	f89d 0007 	ldrb.w	r0, [sp, #7]
 80005d6:	f023 2380 	bic.w	r3, r3, #2147516416	; 0x80008000
 80005da:	5c09      	ldrb	r1, [r1, r0]
 80005dc:	f043 4300 	orr.w	r3, r3, #2147483648	; 0x80000000
 80005e0:	e714      	b.n	800040c <_ZN6msxmap40compute_x_bits_and_check_interrupt_stuckEhhb+0x4c>
			if (x_local_setb)
 80005e2:	f89d 3005 	ldrb.w	r3, [sp, #5]
 80005e6:	490f      	ldr	r1, [pc, #60]	; (8000624 <_ZN6msxmap40compute_x_bits_and_check_interrupt_stuckEhhb+0x264>)
 80005e8:	4a0f      	ldr	r2, [pc, #60]	; (8000628 <_ZN6msxmap40compute_x_bits_and_check_interrupt_stuckEhhb+0x268>)
 80005ea:	b163      	cbz	r3, 8000606 <_ZN6msxmap40compute_x_bits_and_check_interrupt_stuckEhhb+0x246>
				x_bits[REVBIT16[y_local]] = (x_bits[REVBIT16[y_local]] | X7_SET_OR) & X7_SET_AND;
 80005ec:	f89d 3007 	ldrb.w	r3, [sp, #7]
 80005f0:	5ccb      	ldrb	r3, [r1, r3]
 80005f2:	f852 3023 	ldr.w	r3, [r2, r3, lsl #2]
 80005f6:	f89d 0007 	ldrb.w	r0, [sp, #7]
 80005fa:	f023 1301 	bic.w	r3, r3, #65537	; 0x10001
 80005fe:	5c09      	ldrb	r1, [r1, r0]
 8000600:	f043 0301 	orr.w	r3, r3, #1
 8000604:	e702      	b.n	800040c <_ZN6msxmap40compute_x_bits_and_check_interrupt_stuckEhhb+0x4c>
				x_bits[REVBIT16[y_local]] = (x_bits[REVBIT16[y_local]] & X7_CLEAR_AND) | X7_CLEAR_OR;
 8000606:	f89d 3007 	ldrb.w	r3, [sp, #7]
 800060a:	5ccb      	ldrb	r3, [r1, r3]
 800060c:	f852 3023 	ldr.w	r3, [r2, r3, lsl #2]
 8000610:	f89d 0007 	ldrb.w	r0, [sp, #7]
 8000614:	f023 1301 	bic.w	r3, r3, #65537	; 0x10001
 8000618:	5c09      	ldrb	r1, [r1, r0]
 800061a:	f443 3380 	orr.w	r3, r3, #65536	; 0x10000
 800061e:	e6f5      	b.n	800040c <_ZN6msxmap40compute_x_bits_and_check_interrupt_stuckEhhb+0x4c>
}
 8000620:	b002      	add	sp, #8
 8000622:	bd10      	pop	{r4, pc}
 8000624:	08003eb0 	stmdaeq	r0, {r4, r5, r7, r9, sl, fp, ip, sp}
 8000628:	200004b0 			; <UNDEFINED> instruction: 0x200004b0
 800062c:	20000468 	andcs	r0, r0, r8, ror #8
 8000630:	20000558 	andcs	r0, r0, r8, asr r5
 8000634:	40020000 	andmi	r0, r2, r0

08000638 <_ZN6msxmap12msxqueuekeysEv>:
{
 8000638:	b510      	push	{r4, lr}
 800063a:	4604      	mov	r4, r0
	if (available_msx_disp_keys_queue_buffer())
 800063c:	f7ff fe80 	bl	8000340 <_ZN6msxmap36available_msx_disp_keys_queue_bufferEv>
 8000640:	b168      	cbz	r0, 800065e <_ZN6msxmap12msxqueuekeysEv+0x26>
		readkey = get_msx_disp_keys_queue_buffer();
 8000642:	4620      	mov	r0, r4
 8000644:	f7ff fe88 	bl	8000358 <_ZN6msxmap30get_msx_disp_keys_queue_bufferEv>
		compute_x_bits_and_check_interrupt_stuck(y_local, x_local, x_local_setb);
 8000648:	f3c0 03c0 	ubfx	r3, r0, #3, #1
 800064c:	f000 0207 	and.w	r2, r0, #7
 8000650:	f3c0 1107 	ubfx	r1, r0, #4, #8
 8000654:	4620      	mov	r0, r4
}
 8000656:	e8bd 4010 	ldmia.w	sp!, {r4, lr}
		compute_x_bits_and_check_interrupt_stuck(y_local, x_local, x_local_setb);
 800065a:	f7ff beb1 	b.w	80003c0 <_ZN6msxmap40compute_x_bits_and_check_interrupt_stuckEhhb>
}
 800065e:	bd10      	pop	{r4, pc}

08000660 <_ZN6msxmap12msx_dispatchEtb>:
{
 8000660:	e92d 47ff 	stmdb	sp!, {r0, r1, r2, r3, r4, r5, r6, r7, r8, r9, sl, lr}
	switch(*(base_of_database+linhavarrida*DB_NUM_COLS+3) & 0x03)
 8000664:	4da7      	ldr	r5, [pc, #668]	; (8000904 <_ZN6msxmap12msx_dispatchEtb+0x2a4>)
{
 8000666:	f8ad 1006 	strh.w	r1, [sp, #6]
	switch(*(base_of_database+linhavarrida*DB_NUM_COLS+3) & 0x03)
 800066a:	f8bd 6006 	ldrh.w	r6, [sp, #6]
 800066e:	682b      	ldr	r3, [r5, #0]
 8000670:	b2b6      	uxth	r6, r6
 8000672:	210a      	movs	r1, #10
 8000674:	fb01 3606 	mla	r6, r1, r6, r3
{
 8000678:	4604      	mov	r4, r0
 800067a:	78f6      	ldrb	r6, [r6, #3]
 800067c:	f006 0603 	and.w	r6, r6, #3
	switch(*(base_of_database+linhavarrida*DB_NUM_COLS+3) & 0x03)
 8000680:	2e01      	cmp	r6, #1
 8000682:	d048      	beq.n	8000716 <_ZN6msxmap12msx_dispatchEtb+0xb6>
 8000684:	2e02      	cmp	r6, #2
 8000686:	f000 809c 	beq.w	80007c2 <_ZN6msxmap12msx_dispatchEtb+0x162>
 800068a:	2e00      	cmp	r6, #0
 800068c:	f040 8137 	bne.w	80008fe <_ZN6msxmap12msx_dispatchEtb+0x29e>
			y_local = (*(base_of_database+linhavarrida*DB_NUM_COLS+4) & (uint8_t)0xF0) >> 4;
 8000690:	f8bd 2006 	ldrh.w	r2, [sp, #6]
			if (y_local != y_dummy)
 8000694:	4e9c      	ldr	r6, [pc, #624]	; (8000908 <_ZN6msxmap12msx_dispatchEtb+0x2a8>)
			y_local = (*(base_of_database+linhavarrida*DB_NUM_COLS+4) & (uint8_t)0xF0) >> 4;
 8000696:	b292      	uxth	r2, r2
 8000698:	fb01 3202 	mla	r2, r1, r2, r3
			if (y_local != y_dummy)
 800069c:	7837      	ldrb	r7, [r6, #0]
			y_local = (*(base_of_database+linhavarrida*DB_NUM_COLS+4) & (uint8_t)0xF0) >> 4;
 800069e:	7912      	ldrb	r2, [r2, #4]
 80006a0:	0912      	lsrs	r2, r2, #4
 80006a2:	f88d 200d 	strb.w	r2, [sp, #13]
			if (y_local != y_dummy)
 80006a6:	f89d 200d 	ldrb.w	r2, [sp, #13]
 80006aa:	4297      	cmp	r7, r2
				if (y_local != y_dummy)
 80006ac:	d01b      	beq.n	80006e6 <_ZN6msxmap12msx_dispatchEtb+0x86>
					x_local = *(base_of_database+linhavarrida*DB_NUM_COLS+4) & (uint8_t)0x07;
 80006ae:	f8bd 2006 	ldrh.w	r2, [sp, #6]
 80006b2:	b292      	uxth	r2, r2
 80006b4:	fb01 3202 	mla	r2, r1, r2, r3
 80006b8:	7912      	ldrb	r2, [r2, #4]
 80006ba:	f002 0207 	and.w	r2, r2, #7
 80006be:	f88d 200e 	strb.w	r2, [sp, #14]
					x_local_setb = ((*(base_of_database+linhavarrida*DB_NUM_COLS+4) & (uint8_t)PRESS_RELEASE_BIT) >> PRESS_RELEASE_BIT_POSITION) == (uint8_t)1;
 80006c2:	f8bd 2006 	ldrh.w	r2, [sp, #6]
 80006c6:	b292      	uxth	r2, r2
 80006c8:	fb01 3302 	mla	r3, r1, r2, r3
 80006cc:	791b      	ldrb	r3, [r3, #4]
 80006ce:	f3c3 03c0 	ubfx	r3, r3, #3, #1
 80006d2:	f88d 300f 	strb.w	r3, [sp, #15]
					compute_x_bits_and_check_interrupt_stuck(y_local, x_local, x_local_setb);
 80006d6:	f89d 100d 	ldrb.w	r1, [sp, #13]
 80006da:	f89d 200e 	ldrb.w	r2, [sp, #14]
 80006de:	f89d 300f 	ldrb.w	r3, [sp, #15]
 80006e2:	f7ff fe6d 	bl	80003c0 <_ZN6msxmap40compute_x_bits_and_check_interrupt_stuckEhhb>
				y_local = (*(base_of_database+linhavarrida*DB_NUM_COLS+5) & (uint8_t)0xF0) >> 4;
 80006e6:	f8bd 3006 	ldrh.w	r3, [sp, #6]
 80006ea:	682a      	ldr	r2, [r5, #0]
				if (y_local != y_dummy)
 80006ec:	7830      	ldrb	r0, [r6, #0]
				y_local = (*(base_of_database+linhavarrida*DB_NUM_COLS+5) & (uint8_t)0xF0) >> 4;
 80006ee:	b29b      	uxth	r3, r3
 80006f0:	210a      	movs	r1, #10
 80006f2:	fb01 2303 	mla	r3, r1, r3, r2
 80006f6:	795b      	ldrb	r3, [r3, #5]
 80006f8:	091b      	lsrs	r3, r3, #4
 80006fa:	f88d 300d 	strb.w	r3, [sp, #13]
				if (y_local != y_dummy)
 80006fe:	f89d 300d 	ldrb.w	r3, [sp, #13]
 8000702:	4298      	cmp	r0, r3
 8000704:	f000 80fb 	beq.w	80008fe <_ZN6msxmap12msx_dispatchEtb+0x29e>
					put_msx_disp_keys_queue_buffer(*(base_of_database+linhavarrida*DB_NUM_COLS+5));
 8000708:	f8bd 3006 	ldrh.w	r3, [sp, #6]
 800070c:	b29b      	uxth	r3, r3
 800070e:	fb01 2203 	mla	r2, r1, r3, r2
 8000712:	7951      	ldrb	r1, [r2, #5]
 8000714:	e04f      	b.n	80007b6 <_ZN6msxmap12msx_dispatchEtb+0x156>
			if (ps2numlockstate ^ shiftstate)
 8000716:	f8df c1f8 	ldr.w	ip, [pc, #504]	; 8000910 <_ZN6msxmap12msx_dispatchEtb+0x2b0>
			if (y_local != y_dummy)
 800071a:	4e7b      	ldr	r6, [pc, #492]	; (8000908 <_ZN6msxmap12msx_dispatchEtb+0x2a8>)
			if (ps2numlockstate ^ shiftstate)
 800071c:	f89c c000 	ldrb.w	ip, [ip]
			if (y_local != y_dummy)
 8000720:	7837      	ldrb	r7, [r6, #0]
			if (ps2numlockstate ^ shiftstate)
 8000722:	4594      	cmp	ip, r2
				y_local = (*(base_of_database+linhavarrida*DB_NUM_COLS+4) & (uint8_t)0xF0)  >> 4;
 8000724:	f8bd 2006 	ldrh.w	r2, [sp, #6]
 8000728:	b292      	uxth	r2, r2
 800072a:	fb01 3202 	mla	r2, r1, r2, r3
			if (ps2numlockstate ^ shiftstate)
 800072e:	d007      	beq.n	8000740 <_ZN6msxmap12msx_dispatchEtb+0xe0>
				y_local = (*(base_of_database+linhavarrida*DB_NUM_COLS+4) & (uint8_t)0xF0)  >> 4;
 8000730:	7912      	ldrb	r2, [r2, #4]
 8000732:	0912      	lsrs	r2, r2, #4
 8000734:	f88d 200d 	strb.w	r2, [sp, #13]
				if (y_local != y_dummy)
 8000738:	f89d 200d 	ldrb.w	r2, [sp, #13]
 800073c:	42ba      	cmp	r2, r7
 800073e:	e7b5      	b.n	80006ac <_ZN6msxmap12msx_dispatchEtb+0x4c>
				y_local = (*(base_of_database+linhavarrida*DB_NUM_COLS+6) & (uint8_t)0xF0)  >> 4;
 8000740:	7992      	ldrb	r2, [r2, #6]
 8000742:	0912      	lsrs	r2, r2, #4
 8000744:	f88d 200d 	strb.w	r2, [sp, #13]
				if (y_local != y_dummy)
 8000748:	f89d 200d 	ldrb.w	r2, [sp, #13]
 800074c:	42ba      	cmp	r2, r7
 800074e:	d01b      	beq.n	8000788 <_ZN6msxmap12msx_dispatchEtb+0x128>
					x_local = *(base_of_database+linhavarrida*DB_NUM_COLS+6) & (uint8_t)0x07;
 8000750:	f8bd 2006 	ldrh.w	r2, [sp, #6]
 8000754:	b292      	uxth	r2, r2
 8000756:	fb01 3202 	mla	r2, r1, r2, r3
 800075a:	7992      	ldrb	r2, [r2, #6]
 800075c:	f002 0207 	and.w	r2, r2, #7
 8000760:	f88d 200e 	strb.w	r2, [sp, #14]
					x_local_setb = ((*(base_of_database+linhavarrida*DB_NUM_COLS+6) & (uint8_t)PRESS_RELEASE_BIT) >> PRESS_RELEASE_BIT_POSITION) == (uint8_t)1;
 8000764:	f8bd 2006 	ldrh.w	r2, [sp, #6]
 8000768:	b292      	uxth	r2, r2
 800076a:	fb01 3302 	mla	r3, r1, r2, r3
 800076e:	799b      	ldrb	r3, [r3, #6]
 8000770:	f3c3 03c0 	ubfx	r3, r3, #3, #1
 8000774:	f88d 300f 	strb.w	r3, [sp, #15]
					compute_x_bits_and_check_interrupt_stuck(y_local, x_local, x_local_setb);
 8000778:	f89d 100d 	ldrb.w	r1, [sp, #13]
 800077c:	f89d 200e 	ldrb.w	r2, [sp, #14]
 8000780:	f89d 300f 	ldrb.w	r3, [sp, #15]
 8000784:	f7ff fe1c 	bl	80003c0 <_ZN6msxmap40compute_x_bits_and_check_interrupt_stuckEhhb>
				y_local = (*(base_of_database+linhavarrida*DB_NUM_COLS+7) & (uint8_t)0xF0) >> (uint8_t)4;
 8000788:	f8bd 3006 	ldrh.w	r3, [sp, #6]
 800078c:	682a      	ldr	r2, [r5, #0]
				if (y_local != y_dummy)
 800078e:	7830      	ldrb	r0, [r6, #0]
				y_local = (*(base_of_database+linhavarrida*DB_NUM_COLS+7) & (uint8_t)0xF0) >> (uint8_t)4;
 8000790:	b29b      	uxth	r3, r3
 8000792:	210a      	movs	r1, #10
 8000794:	fb01 2303 	mla	r3, r1, r3, r2
 8000798:	79db      	ldrb	r3, [r3, #7]
 800079a:	091b      	lsrs	r3, r3, #4
 800079c:	f88d 300d 	strb.w	r3, [sp, #13]
				if (y_local != y_dummy)
 80007a0:	f89d 300d 	ldrb.w	r3, [sp, #13]
 80007a4:	4298      	cmp	r0, r3
 80007a6:	f000 80aa 	beq.w	80008fe <_ZN6msxmap12msx_dispatchEtb+0x29e>
					put_msx_disp_keys_queue_buffer(*(base_of_database+linhavarrida*DB_NUM_COLS+7));
 80007aa:	f8bd 3006 	ldrh.w	r3, [sp, #6]
 80007ae:	b29b      	uxth	r3, r3
 80007b0:	fb01 2203 	mla	r2, r1, r3, r2
 80007b4:	79d1      	ldrb	r1, [r2, #7]
					put_msx_disp_keys_queue_buffer(*(base_of_database+linhavarrida*DB_NUM_COLS+9));
 80007b6:	4620      	mov	r0, r4
}
 80007b8:	b004      	add	sp, #16
 80007ba:	e8bd 47f0 	ldmia.w	sp!, {r4, r5, r6, r7, r8, r9, sl, lr}
					put_msx_disp_keys_queue_buffer(*(base_of_database+linhavarrida*DB_NUM_COLS+9));
 80007be:	f7ff bde3 	b.w	8000388 <_ZN6msxmap30put_msx_disp_keys_queue_bufferEh>
			if (y_local != y_dummy)
 80007c2:	4e51      	ldr	r6, [pc, #324]	; (8000908 <_ZN6msxmap12msx_dispatchEtb+0x2a8>)
 80007c4:	7837      	ldrb	r7, [r6, #0]
			if (!shiftstate)
 80007c6:	b92a      	cbnz	r2, 80007d4 <_ZN6msxmap12msx_dispatchEtb+0x174>
				y_local = (*(base_of_database+linhavarrida*DB_NUM_COLS+4) & (uint8_t)0xF0)  >> 4;
 80007c8:	f8bd 2006 	ldrh.w	r2, [sp, #6]
 80007cc:	b292      	uxth	r2, r2
 80007ce:	fb01 3202 	mla	r2, r1, r2, r3
 80007d2:	e7ad      	b.n	8000730 <_ZN6msxmap12msx_dispatchEtb+0xd0>
				y_local = (*(base_of_database+linhavarrida*DB_NUM_COLS+8) & (uint8_t)0xF0) >> 4;
 80007d4:	f8bd 2006 	ldrh.w	r2, [sp, #6]
 80007d8:	b292      	uxth	r2, r2
 80007da:	fb01 3202 	mla	r2, r1, r2, r3
 80007de:	7a12      	ldrb	r2, [r2, #8]
 80007e0:	0912      	lsrs	r2, r2, #4
 80007e2:	f88d 200d 	strb.w	r2, [sp, #13]
				if (y_local != y_dummy)
 80007e6:	f89d 200d 	ldrb.w	r2, [sp, #13]
 80007ea:	42ba      	cmp	r2, r7
 80007ec:	d070      	beq.n	80008d0 <_ZN6msxmap12msx_dispatchEtb+0x270>
					if (*(base_of_database+linhavarrida*DB_NUM_COLS+8) == (uint8_t)0x64) //if CODE key is to be pressed
 80007ee:	f8bd 2006 	ldrh.w	r2, [sp, #6]
 80007f2:	b292      	uxth	r2, r2
 80007f4:	fb01 3302 	mla	r3, r1, r2, r3
 80007f8:	7a1b      	ldrb	r3, [r3, #8]
 80007fa:	2b64      	cmp	r3, #100	; 0x64
 80007fc:	d129      	bne.n	8000852 <_ZN6msxmap12msx_dispatchEtb+0x1f2>
						x_bits[Y_SHIFT] = (x_bits[Y_SHIFT] | X0_SET_OR) & X0_SET_AND;		//then Release MSX Shift key
 80007fe:	4f43      	ldr	r7, [pc, #268]	; (800090c <_ZN6msxmap12msx_dispatchEtb+0x2ac>)
						if (systicks - previous_y_systick[Y_SHIFT] > MAX_TIME_OF_IDLE_KEYSCAN_SYSTICKS)
 8000800:	f8df 8110 	ldr.w	r8, [pc, #272]	; 8000914 <_ZN6msxmap12msx_dispatchEtb+0x2b4>
						x_bits[Y_SHIFT] = (x_bits[Y_SHIFT] | X0_SET_OR) & X0_SET_AND;		//then Release MSX Shift key
 8000804:	69bb      	ldr	r3, [r7, #24]
						if (systicks - previous_y_systick[Y_SHIFT] > MAX_TIME_OF_IDLE_KEYSCAN_SYSTICKS)
 8000806:	f8df 9110 	ldr.w	r9, [pc, #272]	; 8000918 <_ZN6msxmap12msx_dispatchEtb+0x2b8>
						x_bits[Y_SHIFT] = (x_bits[Y_SHIFT] | X0_SET_OR) & X0_SET_AND;		//then Release MSX Shift key
 800080a:	f023 2310 	bic.w	r3, r3, #268439552	; 0x10001000
 800080e:	f443 5380 	orr.w	r3, r3, #4096	; 0x1000
 8000812:	61bb      	str	r3, [r7, #24]
						if (systicks - previous_y_systick[Y_SHIFT] > MAX_TIME_OF_IDLE_KEYSCAN_SYSTICKS)
 8000814:	f8d8 2018 	ldr.w	r2, [r8, #24]
 8000818:	f8d9 3000 	ldr.w	r3, [r9]
 800081c:	1a9b      	subs	r3, r3, r2
 800081e:	2b05      	cmp	r3, #5
 8000820:	d917      	bls.n	8000852 <_ZN6msxmap12msx_dispatchEtb+0x1f2>
							msx_Y_scan = (gpio_port_read(GPIOA) & 0x01E0) >> 5;
 8000822:	f8df a0f8 	ldr.w	sl, [pc, #248]	; 800091c <_ZN6msxmap12msx_dispatchEtb+0x2bc>
							exti_disable_request(Y3_exti | Y2_exti | Y1_exti | Y0_exti);
 8000826:	f44f 70f0 	mov.w	r0, #480	; 0x1e0
 800082a:	f001 fdf9 	bl	8002420 <exti_disable_request>
							msx_Y_scan = (gpio_port_read(GPIOA) & 0x01E0) >> 5;
 800082e:	4650      	mov	r0, sl
 8000830:	f001 fecc 	bl	80025cc <gpio_port_read>
							if (msx_Y_scan == Y_SHIFT)
 8000834:	f3c0 1043 	ubfx	r0, r0, #5, #4
 8000838:	2806      	cmp	r0, #6
								GPIOB_BSRR = x_bits[Y_SHIFT]; //Atomic GPIOB update => Release and press MSX keys for this column
 800083a:	bf01      	itttt	eq
 800083c:	69bb      	ldreq	r3, [r7, #24]
 800083e:	f8ca 3418 	streq.w	r3, [sl, #1048]	; 0x418
								previous_y_systick[Y_SHIFT] = systicks;
 8000842:	f8d9 3000 	ldreq.w	r3, [r9]
 8000846:	f8c8 3018 	streq.w	r3, [r8, #24]
							exti_enable_request(Y0_exti | Y1_exti | Y2_exti | Y3_exti);
 800084a:	f44f 70f0 	mov.w	r0, #480	; 0x1e0
 800084e:	f001 fdd9 	bl	8002404 <exti_enable_request>
					if (*(base_of_database+linhavarrida*DB_NUM_COLS+8) == (uint8_t)0x6C) //if CODE key released
 8000852:	f8bd 3006 	ldrh.w	r3, [sp, #6]
 8000856:	b29a      	uxth	r2, r3
 8000858:	682b      	ldr	r3, [r5, #0]
 800085a:	210a      	movs	r1, #10
 800085c:	fb01 3302 	mla	r3, r1, r2, r3
 8000860:	7a1b      	ldrb	r3, [r3, #8]
 8000862:	2b6c      	cmp	r3, #108	; 0x6c
 8000864:	d129      	bne.n	80008ba <_ZN6msxmap12msx_dispatchEtb+0x25a>
						x_bits[Y_SHIFT] = (x_bits[Y_SHIFT] & X0_CLEAR_AND) | X0_CLEAR_OR;		//then Press MSX Shift key
 8000866:	4f29      	ldr	r7, [pc, #164]	; (800090c <_ZN6msxmap12msx_dispatchEtb+0x2ac>)
						if (systicks - previous_y_systick[Y_SHIFT] > MAX_TIME_OF_IDLE_KEYSCAN_SYSTICKS)
 8000868:	f8df 80a8 	ldr.w	r8, [pc, #168]	; 8000914 <_ZN6msxmap12msx_dispatchEtb+0x2b4>
						x_bits[Y_SHIFT] = (x_bits[Y_SHIFT] & X0_CLEAR_AND) | X0_CLEAR_OR;		//then Press MSX Shift key
 800086c:	69bb      	ldr	r3, [r7, #24]
						if (systicks - previous_y_systick[Y_SHIFT] > MAX_TIME_OF_IDLE_KEYSCAN_SYSTICKS)
 800086e:	f8df 90a8 	ldr.w	r9, [pc, #168]	; 8000918 <_ZN6msxmap12msx_dispatchEtb+0x2b8>
						x_bits[Y_SHIFT] = (x_bits[Y_SHIFT] & X0_CLEAR_AND) | X0_CLEAR_OR;		//then Press MSX Shift key
 8000872:	f023 2310 	bic.w	r3, r3, #268439552	; 0x10001000
 8000876:	f043 5380 	orr.w	r3, r3, #268435456	; 0x10000000
 800087a:	61bb      	str	r3, [r7, #24]
						if (systicks - previous_y_systick[Y_SHIFT] > MAX_TIME_OF_IDLE_KEYSCAN_SYSTICKS)
 800087c:	f8d8 2018 	ldr.w	r2, [r8, #24]
 8000880:	f8d9 3000 	ldr.w	r3, [r9]
 8000884:	1a9b      	subs	r3, r3, r2
 8000886:	2b05      	cmp	r3, #5
 8000888:	d917      	bls.n	80008ba <_ZN6msxmap12msx_dispatchEtb+0x25a>
							msx_Y_scan = (gpio_port_read(GPIOA) & 0x01E0) >> 5;
 800088a:	f8df a090 	ldr.w	sl, [pc, #144]	; 800091c <_ZN6msxmap12msx_dispatchEtb+0x2bc>
							exti_disable_request(Y3_exti | Y2_exti | Y1_exti | Y0_exti);
 800088e:	f44f 70f0 	mov.w	r0, #480	; 0x1e0
 8000892:	f001 fdc5 	bl	8002420 <exti_disable_request>
							msx_Y_scan = (gpio_port_read(GPIOA) & 0x01E0) >> 5;
 8000896:	4650      	mov	r0, sl
 8000898:	f001 fe98 	bl	80025cc <gpio_port_read>
							if (msx_Y_scan == Y_SHIFT)
 800089c:	f3c0 1043 	ubfx	r0, r0, #5, #4
 80008a0:	2806      	cmp	r0, #6
								GPIOB_BSRR = x_bits[Y_SHIFT];
 80008a2:	bf01      	itttt	eq
 80008a4:	69bb      	ldreq	r3, [r7, #24]
 80008a6:	f8ca 3418 	streq.w	r3, [sl, #1048]	; 0x418
								previous_y_systick[Y_SHIFT] = systicks;
 80008aa:	f8d9 3000 	ldreq.w	r3, [r9]
 80008ae:	f8c8 3018 	streq.w	r3, [r8, #24]
							exti_enable_request(Y0_exti | Y1_exti | Y2_exti | Y3_exti);
 80008b2:	f44f 70f0 	mov.w	r0, #480	; 0x1e0
 80008b6:	f001 fda5 	bl	8002404 <exti_enable_request>
					put_msx_disp_keys_queue_buffer(*(base_of_database+linhavarrida*DB_NUM_COLS+8));
 80008ba:	f8bd 3006 	ldrh.w	r3, [sp, #6]
 80008be:	b29a      	uxth	r2, r3
 80008c0:	682b      	ldr	r3, [r5, #0]
 80008c2:	210a      	movs	r1, #10
 80008c4:	fb01 3302 	mla	r3, r1, r2, r3
 80008c8:	4620      	mov	r0, r4
 80008ca:	7a19      	ldrb	r1, [r3, #8]
 80008cc:	f7ff fd5c 	bl	8000388 <_ZN6msxmap30put_msx_disp_keys_queue_bufferEh>
				y_local = (*(base_of_database+linhavarrida*DB_NUM_COLS+9) & (uint8_t)0xF0) >> 4;
 80008d0:	f8bd 3006 	ldrh.w	r3, [sp, #6]
 80008d4:	682a      	ldr	r2, [r5, #0]
				if (y_local != y_dummy)
 80008d6:	7830      	ldrb	r0, [r6, #0]
				y_local = (*(base_of_database+linhavarrida*DB_NUM_COLS+9) & (uint8_t)0xF0) >> 4;
 80008d8:	b29b      	uxth	r3, r3
 80008da:	210a      	movs	r1, #10
 80008dc:	fb01 2303 	mla	r3, r1, r3, r2
 80008e0:	7a5b      	ldrb	r3, [r3, #9]
 80008e2:	091b      	lsrs	r3, r3, #4
 80008e4:	f88d 300d 	strb.w	r3, [sp, #13]
				if (y_local != y_dummy)
 80008e8:	f89d 300d 	ldrb.w	r3, [sp, #13]
 80008ec:	4298      	cmp	r0, r3
 80008ee:	d006      	beq.n	80008fe <_ZN6msxmap12msx_dispatchEtb+0x29e>
					put_msx_disp_keys_queue_buffer(*(base_of_database+linhavarrida*DB_NUM_COLS+9));
 80008f0:	f8bd 3006 	ldrh.w	r3, [sp, #6]
 80008f4:	b29b      	uxth	r3, r3
 80008f6:	fb01 2203 	mla	r2, r1, r3, r2
 80008fa:	7a51      	ldrb	r1, [r2, #9]
 80008fc:	e75b      	b.n	80007b6 <_ZN6msxmap12msx_dispatchEtb+0x156>
}
 80008fe:	b004      	add	sp, #16
 8000900:	e8bd 87f0 	ldmia.w	sp!, {r4, r5, r6, r7, r8, r9, sl, pc}
 8000904:	2000045c 	andcs	r0, r0, ip, asr r4
 8000908:	200004f0 	strdcs	r0, [r0], -r0	; <UNPREDICTABLE>
 800090c:	200004b0 			; <UNDEFINED> instruction: 0x200004b0
 8000910:	2000054c 	andcs	r0, r0, ip, asr #10
 8000914:	20000468 	andcs	r0, r0, r8, ror #8
 8000918:	20000558 	andcs	r0, r0, r8, asr r5
 800091c:	40020000 	andmi	r0, r2, r0

08000920 <_ZN6msxmap11convert2msxEv>:
{
 8000920:	b537      	push	{r0, r1, r2, r4, r5, lr}
	switch(CtrlAltDel)
 8000922:	4a7f      	ldr	r2, [pc, #508]	; (8000b20 <_ZN6msxmap11convert2msxEv+0x200>)
 8000924:	4b7f      	ldr	r3, [pc, #508]	; (8000b24 <_ZN6msxmap11convert2msxEv+0x204>)
 8000926:	7811      	ldrb	r1, [r2, #0]
 8000928:	2901      	cmp	r1, #1
 800092a:	f000 808d 	beq.w	8000a48 <_ZN6msxmap11convert2msxEv+0x128>
 800092e:	2902      	cmp	r1, #2
 8000930:	f000 8095 	beq.w	8000a5e <_ZN6msxmap11convert2msxEv+0x13e>
 8000934:	b939      	cbnz	r1, 8000946 <_ZN6msxmap11convert2msxEv+0x26>
			(scancode[0] == (uint8_t)1) 		&&
 8000936:	7819      	ldrb	r1, [r3, #0]
 8000938:	2901      	cmp	r1, #1
 800093a:	b2cc      	uxtb	r4, r1
 800093c:	d103      	bne.n	8000946 <_ZN6msxmap11convert2msxEv+0x26>
			(scancode[1] == (uint8_t)0x14) ) //Left Control
 800093e:	7859      	ldrb	r1, [r3, #1]
			(scancode[0] == (uint8_t)1) 		&&
 8000940:	2914      	cmp	r1, #20
 8000942:	d100      	bne.n	8000946 <_ZN6msxmap11convert2msxEv+0x26>
				CtrlAltDel = 1;
 8000944:	7014      	strb	r4, [r2, #0]
	(scancode[0] == (uint8_t)1) 		&&
 8000946:	781a      	ldrb	r2, [r3, #0]
 8000948:	2a01      	cmp	r2, #1
 800094a:	b2d1      	uxtb	r1, r2
 800094c:	d103      	bne.n	8000956 <_ZN6msxmap11convert2msxEv+0x36>
	(scancode[1] == (uint8_t)0x77) )
 800094e:	785a      	ldrb	r2, [r3, #1]
	(scancode[0] == (uint8_t)1) 		&&
 8000950:	2a77      	cmp	r2, #119	; 0x77
 8000952:	f000 8097 	beq.w	8000a84 <_ZN6msxmap11convert2msxEv+0x164>
	( scancode[0] == (uint8_t)1)	  &&
 8000956:	781a      	ldrb	r2, [r3, #0]
 8000958:	2a01      	cmp	r2, #1
 800095a:	d108      	bne.n	800096e <_ZN6msxmap11convert2msxEv+0x4e>
	((scancode[1] == (uint8_t)0x12) || (scancode[1] == (uint8_t)0x59)) )
 800095c:	785a      	ldrb	r2, [r3, #1]
	( scancode[0] == (uint8_t)1)	  &&
 800095e:	2a12      	cmp	r2, #18
 8000960:	d002      	beq.n	8000968 <_ZN6msxmap11convert2msxEv+0x48>
	((scancode[1] == (uint8_t)0x12) || (scancode[1] == (uint8_t)0x59)) )
 8000962:	785a      	ldrb	r2, [r3, #1]
 8000964:	2a59      	cmp	r2, #89	; 0x59
 8000966:	d102      	bne.n	800096e <_ZN6msxmap11convert2msxEv+0x4e>
		shiftstate = true;
 8000968:	4a6f      	ldr	r2, [pc, #444]	; (8000b28 <_ZN6msxmap11convert2msxEv+0x208>)
 800096a:	2101      	movs	r1, #1
 800096c:	7011      	strb	r1, [r2, #0]
	( scancode[0] == (uint8_t)2)		&&
 800096e:	781a      	ldrb	r2, [r3, #0]
	( scancode[1] == (uint8_t)0xF0) &&
 8000970:	2a02      	cmp	r2, #2
 8000972:	d10b      	bne.n	800098c <_ZN6msxmap11convert2msxEv+0x6c>
 8000974:	785a      	ldrb	r2, [r3, #1]
	( scancode[0] == (uint8_t)2)		&&
 8000976:	2af0      	cmp	r2, #240	; 0xf0
 8000978:	d108      	bne.n	800098c <_ZN6msxmap11convert2msxEv+0x6c>
	((scancode[2] == (uint8_t)0x12) || (scancode[2]== (uint8_t)0x59)) )
 800097a:	789a      	ldrb	r2, [r3, #2]
	( scancode[1] == (uint8_t)0xF0) &&
 800097c:	2a12      	cmp	r2, #18
 800097e:	d002      	beq.n	8000986 <_ZN6msxmap11convert2msxEv+0x66>
	((scancode[2] == (uint8_t)0x12) || (scancode[2]== (uint8_t)0x59)) )
 8000980:	789a      	ldrb	r2, [r3, #2]
 8000982:	2a59      	cmp	r2, #89	; 0x59
 8000984:	d102      	bne.n	800098c <_ZN6msxmap11convert2msxEv+0x6c>
		shiftstate = false;
 8000986:	4a68      	ldr	r2, [pc, #416]	; (8000b28 <_ZN6msxmap11convert2msxEv+0x208>)
 8000988:	2100      	movs	r1, #0
 800098a:	7011      	strb	r1, [r2, #0]
	linhavarrida = 1;
 800098c:	2201      	movs	r2, #1
 800098e:	f8ad 2006 	strh.w	r2, [sp, #6]
	(*(base_of_database+linhavarrida*DB_NUM_COLS+0) != scancode[1]) &&
 8000992:	4a66      	ldr	r2, [pc, #408]	; (8000b2c <_ZN6msxmap11convert2msxEv+0x20c>)
 8000994:	6812      	ldr	r2, [r2, #0]
 8000996:	240a      	movs	r4, #10
 8000998:	f8bd 1006 	ldrh.w	r1, [sp, #6]
 800099c:	785d      	ldrb	r5, [r3, #1]
 800099e:	b289      	uxth	r1, r1
 80009a0:	4361      	muls	r1, r4
 80009a2:	5c51      	ldrb	r1, [r2, r1]
 80009a4:	42a9      	cmp	r1, r5
 80009a6:	d005      	beq.n	80009b4 <_ZN6msxmap11convert2msxEv+0x94>
	(linhavarrida < MAX_LINHAS_VARRIDAS) )
 80009a8:	f8bd 1006 	ldrh.w	r1, [sp, #6]
 80009ac:	b289      	uxth	r1, r1
	(*(base_of_database+linhavarrida*DB_NUM_COLS+0) != scancode[1]) &&
 80009ae:	f5b1 7f99 	cmp.w	r1, #306	; 0x132
 80009b2:	d370      	bcc.n	8000a96 <_ZN6msxmap11convert2msxEv+0x176>
	(scancode[0] == (uint8_t)1) && 
 80009b4:	7819      	ldrb	r1, [r3, #0]
	(scancode[1]  == *(base_of_database+linhavarrida*DB_NUM_COLS+0)) && 
 80009b6:	2901      	cmp	r1, #1
 80009b8:	d10e      	bne.n	80009d8 <_ZN6msxmap11convert2msxEv+0xb8>
 80009ba:	785c      	ldrb	r4, [r3, #1]
 80009bc:	f8bd 1006 	ldrh.w	r1, [sp, #6]
 80009c0:	250a      	movs	r5, #10
 80009c2:	b289      	uxth	r1, r1
 80009c4:	4369      	muls	r1, r5
	(scancode[0] == (uint8_t)1) && 
 80009c6:	5c51      	ldrb	r1, [r2, r1]
 80009c8:	42a1      	cmp	r1, r4
 80009ca:	d105      	bne.n	80009d8 <_ZN6msxmap11convert2msxEv+0xb8>
	(linhavarrida < MAX_LINHAS_VARRIDAS) )
 80009cc:	f8bd 1006 	ldrh.w	r1, [sp, #6]
 80009d0:	b289      	uxth	r1, r1
	(scancode[1]  == *(base_of_database+linhavarrida*DB_NUM_COLS+0)) && 
 80009d2:	f5b1 7f99 	cmp.w	r1, #306	; 0x132
 80009d6:	d32d      	bcc.n	8000a34 <_ZN6msxmap11convert2msxEv+0x114>
	if ((scancode[0] >= (uint8_t)1) &&
 80009d8:	7819      	ldrb	r1, [r3, #0]
 80009da:	2900      	cmp	r1, #0
 80009dc:	d059      	beq.n	8000a92 <_ZN6msxmap11convert2msxEv+0x172>
	(linhavarrida < MAX_LINHAS_VARRIDAS) )
 80009de:	f8bd 1006 	ldrh.w	r1, [sp, #6]
 80009e2:	b289      	uxth	r1, r1
	if ((scancode[0] >= (uint8_t)1) &&
 80009e4:	f5b1 7f99 	cmp.w	r1, #306	; 0x132
 80009e8:	d253      	bcs.n	8000a92 <_ZN6msxmap11convert2msxEv+0x172>
		(*(base_of_database+linhavarrida*DB_NUM_COLS+1) != scancode[2]) &&
 80009ea:	240a      	movs	r4, #10
 80009ec:	f8bd 1006 	ldrh.w	r1, [sp, #6]
 80009f0:	789d      	ldrb	r5, [r3, #2]
 80009f2:	b289      	uxth	r1, r1
 80009f4:	fb04 2101 	mla	r1, r4, r1, r2
 80009f8:	7849      	ldrb	r1, [r1, #1]
 80009fa:	42a9      	cmp	r1, r5
 80009fc:	d005      	beq.n	8000a0a <_ZN6msxmap11convert2msxEv+0xea>
		(linhavarrida < MAX_LINHAS_VARRIDAS))
 80009fe:	f8bd 1006 	ldrh.w	r1, [sp, #6]
 8000a02:	b289      	uxth	r1, r1
		(*(base_of_database+linhavarrida*DB_NUM_COLS+1) != scancode[2]) &&
 8000a04:	f5b1 7f99 	cmp.w	r1, #306	; 0x132
 8000a08:	d34c      	bcc.n	8000aa4 <_ZN6msxmap11convert2msxEv+0x184>
		(scancode[0] == (uint8_t)2) && 
 8000a0a:	7819      	ldrb	r1, [r3, #0]
		(scancode[1] == *(base_of_database+linhavarrida*DB_NUM_COLS+0)) && 
 8000a0c:	2902      	cmp	r1, #2
 8000a0e:	d150      	bne.n	8000ab2 <_ZN6msxmap11convert2msxEv+0x192>
 8000a10:	7859      	ldrb	r1, [r3, #1]
 8000a12:	f8bd 4006 	ldrh.w	r4, [sp, #6]
 8000a16:	250a      	movs	r5, #10
 8000a18:	b2a4      	uxth	r4, r4
 8000a1a:	436c      	muls	r4, r5
		(scancode[0] == (uint8_t)2) && 
 8000a1c:	5d14      	ldrb	r4, [r2, r4]
 8000a1e:	428c      	cmp	r4, r1
 8000a20:	d147      	bne.n	8000ab2 <_ZN6msxmap11convert2msxEv+0x192>
		(scancode[2] == *(base_of_database+linhavarrida*DB_NUM_COLS+1)) )
 8000a22:	789c      	ldrb	r4, [r3, #2]
 8000a24:	f8bd 1006 	ldrh.w	r1, [sp, #6]
 8000a28:	b289      	uxth	r1, r1
 8000a2a:	fb05 2101 	mla	r1, r5, r1, r2
		(scancode[1] == *(base_of_database+linhavarrida*DB_NUM_COLS+0)) && 
 8000a2e:	7849      	ldrb	r1, [r1, #1]
 8000a30:	42a1      	cmp	r1, r4
 8000a32:	d13e      	bne.n	8000ab2 <_ZN6msxmap11convert2msxEv+0x192>
			msx_dispatch(linhavarrida, shiftstate);
 8000a34:	4b3c      	ldr	r3, [pc, #240]	; (8000b28 <_ZN6msxmap11convert2msxEv+0x208>)
 8000a36:	f8bd 1006 	ldrh.w	r1, [sp, #6]
 8000a3a:	781a      	ldrb	r2, [r3, #0]
 8000a3c:	b289      	uxth	r1, r1
}
 8000a3e:	b003      	add	sp, #12
 8000a40:	e8bd 4030 	ldmia.w	sp!, {r4, r5, lr}
			msx_dispatch(linhavarrida, shiftstate);
 8000a44:	f7ff be0c 	b.w	8000660 <_ZN6msxmap12msx_dispatchEtb>
			(scancode[0] == (uint8_t)1) 		&&
 8000a48:	7819      	ldrb	r1, [r3, #0]
 8000a4a:	2901      	cmp	r1, #1
 8000a4c:	d102      	bne.n	8000a54 <_ZN6msxmap11convert2msxEv+0x134>
			(scancode[1] == (uint8_t)0x11) ) //Left Alt
 8000a4e:	7859      	ldrb	r1, [r3, #1]
			(scancode[0] == (uint8_t)1) 		&&
 8000a50:	2911      	cmp	r1, #17
 8000a52:	d002      	beq.n	8000a5a <_ZN6msxmap11convert2msxEv+0x13a>
				CtrlAltDel = 0;
 8000a54:	2100      	movs	r1, #0
				CtrlAltDel = 2;
 8000a56:	7011      	strb	r1, [r2, #0]
 8000a58:	e775      	b.n	8000946 <_ZN6msxmap11convert2msxEv+0x26>
 8000a5a:	2102      	movs	r1, #2
 8000a5c:	e7fb      	b.n	8000a56 <_ZN6msxmap11convert2msxEv+0x136>
			(scancode[0] == (uint8_t)1) 		&&
 8000a5e:	7819      	ldrb	r1, [r3, #0]
 8000a60:	2901      	cmp	r1, #1
 8000a62:	d1f7      	bne.n	8000a54 <_ZN6msxmap11convert2msxEv+0x134>
			(scancode[1] == (uint8_t)0x71) ) //Num pad Del
 8000a64:	7859      	ldrb	r1, [r3, #1]
			(scancode[0] == (uint8_t)1) 		&&
 8000a66:	2971      	cmp	r1, #113	; 0x71
 8000a68:	d1f4      	bne.n	8000a54 <_ZN6msxmap11convert2msxEv+0x134>
				power_off_ps2_keyboard();
 8000a6a:	f000 f8e3 	bl	8000c34 <power_off_ps2_keyboard>
				uint32_t readsysticks = systicks;
 8000a6e:	4a30      	ldr	r2, [pc, #192]	; (8000b30 <_ZN6msxmap11convert2msxEv+0x210>)
 8000a70:	6813      	ldr	r3, [r2, #0]
				while (systicks <= (readsysticks + 30)) __asm("nop");
 8000a72:	331e      	adds	r3, #30
 8000a74:	6811      	ldr	r1, [r2, #0]
 8000a76:	428b      	cmp	r3, r1
 8000a78:	d301      	bcc.n	8000a7e <_ZN6msxmap11convert2msxEv+0x15e>
 8000a7a:	bf00      	nop
 8000a7c:	e7fa      	b.n	8000a74 <_ZN6msxmap11convert2msxEv+0x154>
				systick_interrupt_disable();
 8000a7e:	f002 f8dc 	bl	8002c3a <systick_interrupt_disable>
				for(;;) {};//Wait here until reset
 8000a82:	e7fe      	b.n	8000a82 <_ZN6msxmap11convert2msxEv+0x162>
		ps2numlockstate = !ps2numlockstate;
 8000a84:	4a2b      	ldr	r2, [pc, #172]	; (8000b34 <_ZN6msxmap11convert2msxEv+0x214>)
 8000a86:	7813      	ldrb	r3, [r2, #0]
 8000a88:	f083 0301 	eor.w	r3, r3, #1
 8000a8c:	7013      	strb	r3, [r2, #0]
		update_ps2_leds = true;  //this will force update_leds at main loop => To save interrupt time
 8000a8e:	4b2a      	ldr	r3, [pc, #168]	; (8000b38 <_ZN6msxmap11convert2msxEv+0x218>)
 8000a90:	7019      	strb	r1, [r3, #0]
}
 8000a92:	b003      	add	sp, #12
 8000a94:	bd30      	pop	{r4, r5, pc}
		linhavarrida++;
 8000a96:	f8bd 1006 	ldrh.w	r1, [sp, #6]
 8000a9a:	3101      	adds	r1, #1
 8000a9c:	b289      	uxth	r1, r1
 8000a9e:	f8ad 1006 	strh.w	r1, [sp, #6]
	while ( 
 8000aa2:	e779      	b.n	8000998 <_ZN6msxmap11convert2msxEv+0x78>
			linhavarrida++;
 8000aa4:	f8bd 1006 	ldrh.w	r1, [sp, #6]
 8000aa8:	3101      	adds	r1, #1
 8000aaa:	b289      	uxth	r1, r1
 8000aac:	f8ad 1006 	strh.w	r1, [sp, #6]
		while ( 
 8000ab0:	e79c      	b.n	80009ec <_ZN6msxmap11convert2msxEv+0xcc>
		(*(base_of_database+linhavarrida*DB_NUM_COLS+2) != scancode[3]) &&
 8000ab2:	240a      	movs	r4, #10
 8000ab4:	f8bd 1006 	ldrh.w	r1, [sp, #6]
 8000ab8:	78dd      	ldrb	r5, [r3, #3]
 8000aba:	b289      	uxth	r1, r1
 8000abc:	fb04 2101 	mla	r1, r4, r1, r2
 8000ac0:	7889      	ldrb	r1, [r1, #2]
 8000ac2:	42a9      	cmp	r1, r5
 8000ac4:	d005      	beq.n	8000ad2 <_ZN6msxmap11convert2msxEv+0x1b2>
		(linhavarrida < MAX_LINHAS_VARRIDAS) )
 8000ac6:	f8bd 1006 	ldrh.w	r1, [sp, #6]
 8000aca:	b289      	uxth	r1, r1
		(*(base_of_database+linhavarrida*DB_NUM_COLS+2) != scancode[3]) &&
 8000acc:	f5b1 7f99 	cmp.w	r1, #306	; 0x132
 8000ad0:	d31e      	bcc.n	8000b10 <_ZN6msxmap11convert2msxEv+0x1f0>
		(scancode[0] == 3) && 
 8000ad2:	7819      	ldrb	r1, [r3, #0]
		(scancode[2] == *(base_of_database+linhavarrida*DB_NUM_COLS+1)) &&
 8000ad4:	2903      	cmp	r1, #3
 8000ad6:	d1dc      	bne.n	8000a92 <_ZN6msxmap11convert2msxEv+0x172>
		(scancode[1] == *(base_of_database+linhavarrida*DB_NUM_COLS+0)) && 
 8000ad8:	785d      	ldrb	r5, [r3, #1]
 8000ada:	f8bd 1006 	ldrh.w	r1, [sp, #6]
 8000ade:	240a      	movs	r4, #10
 8000ae0:	b289      	uxth	r1, r1
 8000ae2:	4361      	muls	r1, r4
		(scancode[0] == 3) && 
 8000ae4:	5c51      	ldrb	r1, [r2, r1]
 8000ae6:	42a9      	cmp	r1, r5
 8000ae8:	d1d3      	bne.n	8000a92 <_ZN6msxmap11convert2msxEv+0x172>
		(scancode[2] == *(base_of_database+linhavarrida*DB_NUM_COLS+1)) &&
 8000aea:	789d      	ldrb	r5, [r3, #2]
 8000aec:	f8bd 1006 	ldrh.w	r1, [sp, #6]
 8000af0:	b289      	uxth	r1, r1
 8000af2:	fb04 2101 	mla	r1, r4, r1, r2
		(scancode[1] == *(base_of_database+linhavarrida*DB_NUM_COLS+0)) && 
 8000af6:	7849      	ldrb	r1, [r1, #1]
 8000af8:	42a9      	cmp	r1, r5
 8000afa:	d1ca      	bne.n	8000a92 <_ZN6msxmap11convert2msxEv+0x172>
		(scancode[3] == *(base_of_database+linhavarrida*DB_NUM_COLS+2)) )
 8000afc:	78d9      	ldrb	r1, [r3, #3]
 8000afe:	f8bd 3006 	ldrh.w	r3, [sp, #6]
 8000b02:	b29b      	uxth	r3, r3
 8000b04:	fb04 2203 	mla	r2, r4, r3, r2
		(scancode[2] == *(base_of_database+linhavarrida*DB_NUM_COLS+1)) &&
 8000b08:	7893      	ldrb	r3, [r2, #2]
 8000b0a:	428b      	cmp	r3, r1
 8000b0c:	d1c1      	bne.n	8000a92 <_ZN6msxmap11convert2msxEv+0x172>
 8000b0e:	e791      	b.n	8000a34 <_ZN6msxmap11convert2msxEv+0x114>
			linhavarrida++;
 8000b10:	f8bd 1006 	ldrh.w	r1, [sp, #6]
 8000b14:	3101      	adds	r1, #1
 8000b16:	b289      	uxth	r1, r1
 8000b18:	f8ad 1006 	strh.w	r1, [sp, #6]
		while (
 8000b1c:	e7ca      	b.n	8000ab4 <_ZN6msxmap11convert2msxEv+0x194>
 8000b1e:	bf00      	nop
 8000b20:	20000448 	andcs	r0, r0, r8, asr #8
 8000b24:	200004a8 	andcs	r0, r0, r8, lsr #9
 8000b28:	20000459 	andcs	r0, r0, r9, asr r4
 8000b2c:	2000045c 	andcs	r0, r0, ip, asr r4
 8000b30:	20000558 	andcs	r0, r0, r8, asr r5
 8000b34:	2000054c 	andcs	r0, r0, ip, asr #10
 8000b38:	200004ac 	andcs	r0, r0, ip, lsr #9

08000b3c <exti9_5_isr>:
/*************************************************************************************************/
/******************************************* ISR's ***********************************************/
/*************************************************************************************************/
/*************************************************************************************************/
void exti9_5_isr(void) // PC3, PC2, PC1 and PC0 - This ISR works like interrupt on change of each one of Y connected pins
{
 8000b3c:	b570      	push	{r4, r5, r6, lr}
	uint16_t msx_Y_scan;

	//Debug & performance measurement
	gpio_clear(Dbg_Yint_port, Dbg_Yint0e1_pin_id); //Signs start of interruption
 8000b3e:	4d0f      	ldr	r5, [pc, #60]	; (8000b7c <exti9_5_isr+0x40>)

	// Read the MSX keyboard Y scan through GPIO pins A5:A8, mask to 0 other bits and rotate right 5
	msx_Y_scan = (gpio_port_read(GPIOA) & Y_MASK) >> 5;
 8000b40:	4e0f      	ldr	r6, [pc, #60]	; (8000b80 <exti9_5_isr+0x44>)
	gpio_clear(Dbg_Yint_port, Dbg_Yint0e1_pin_id); //Signs start of interruption
 8000b42:	2180      	movs	r1, #128	; 0x80
 8000b44:	4628      	mov	r0, r5
 8000b46:	f001 fd32 	bl	80025ae <gpio_clear>
	msx_Y_scan = (gpio_port_read(GPIOA) & Y_MASK) >> 5;
 8000b4a:	4630      	mov	r0, r6
 8000b4c:	f001 fd3e 	bl	80025cc <gpio_port_read>

	GPIOB_BSRR = x_bits[msx_Y_scan]; //Atomic GPIOB update => Release and press MSX keys for this column
 8000b50:	4b0c      	ldr	r3, [pc, #48]	; (8000b84 <exti9_5_isr+0x48>)
 8000b52:	f3c0 1443 	ubfx	r4, r0, #5, #4

	//Debug & performance measurement
	gpio_set(Dbg_Yint_port, Dbg_Yint0e1_pin_id); //Signs end of interruption. Default condition is "1"
 8000b56:	2180      	movs	r1, #128	; 0x80
	GPIOB_BSRR = x_bits[msx_Y_scan]; //Atomic GPIOB update => Release and press MSX keys for this column
 8000b58:	f853 3024 	ldr.w	r3, [r3, r4, lsl #2]
 8000b5c:	f8c6 3418 	str.w	r3, [r6, #1048]	; 0x418
	gpio_set(Dbg_Yint_port, Dbg_Yint0e1_pin_id); //Signs end of interruption. Default condition is "1"
 8000b60:	4628      	mov	r0, r5
 8000b62:	f001 fd22 	bl	80025aa <gpio_set>

	// Clear interrupt Y Scan flags, including those not used on this ISR
	// if(exti_get_flag_status(EXTI7), (EXTI6), (EXTI4) and (EXTI3))
	exti_reset_request(Y0_exti | Y1_exti | Y2_exti | Y3_exti);
 8000b66:	f44f 70f0 	mov.w	r0, #480	; 0x1e0
 8000b6a:	f001 fc69 	bl	8002440 <exti_reset_request>
    
	//Update systicks (time stamp) for this Y
	previous_y_systick[msx_Y_scan]  = systicks;
 8000b6e:	4b06      	ldr	r3, [pc, #24]	; (8000b88 <exti9_5_isr+0x4c>)
 8000b70:	681a      	ldr	r2, [r3, #0]
 8000b72:	4b06      	ldr	r3, [pc, #24]	; (8000b8c <exti9_5_isr+0x50>)
 8000b74:	f843 2024 	str.w	r2, [r3, r4, lsl #2]
}
 8000b78:	bd70      	pop	{r4, r5, r6, pc}
 8000b7a:	bf00      	nop
 8000b7c:	40020400 	andmi	r0, r2, r0, lsl #8
 8000b80:	40020000 	andmi	r0, r2, r0
 8000b84:	200004b0 			; <UNDEFINED> instruction: 0x200004b0
 8000b88:	20000558 	andcs	r0, r0, r8, asr r5
 8000b8c:	20000468 	andcs	r0, r0, r8, ror #8

08000b90 <exti4_isr>:
	exti_reset_request(Y0_exti | Y1_exti | Y2_exti | Y3_exti);
    
	//Update systicks (time stamp) for this Y
	previous_y_systick[msx_Y_scan]  = systicks;
*/
}
 8000b90:	4770      	bx	lr
	...

08000b94 <send_start_bit2>:
	delay_usec(120, send_start_bit2); //wait 120usec and go to send_start_bit2 on TIM2 overflow interrupt
}


void send_start_bit2(void) //Second part of send_start_bit
{
 8000b94:	b508      	push	{r3, lr}
	gpio_clear(PS2_DATA_PIN_PORT, PS2_DATA_PIN_ID); //this is the start bit
 8000b96:	4805      	ldr	r0, [pc, #20]	; (8000bac <send_start_bit2+0x18>)
 8000b98:	2120      	movs	r1, #32
 8000b9a:	f001 fd08 	bl	80025ae <gpio_clear>
	//now insert a 10us delay and run step 3 of send_start_bit function
	delay_usec(10, send_start_bit3); /*wait 20usec and go to send_start_bit3 on TIM2 overflow interrupt*/
}
 8000b9e:	e8bd 4008 	ldmia.w	sp!, {r3, lr}
	delay_usec(10, send_start_bit3); /*wait 20usec and go to send_start_bit3 on TIM2 overflow interrupt*/
 8000ba2:	4903      	ldr	r1, [pc, #12]	; (8000bb0 <send_start_bit2+0x1c>)
 8000ba4:	200a      	movs	r0, #10
 8000ba6:	f001 b9dd 	b.w	8001f64 <delay_usec>
 8000baa:	bf00      	nop
 8000bac:	40020400 	andmi	r0, r2, r0, lsl #8
 8000bb0:	08000bfd 	stmdaeq	r0, {r0, r2, r3, r4, r5, r6, r7, r8, r9, fp}

08000bb4 <send_start_bit_now>:
{
 8000bb4:	b508      	push	{r3, lr}
	timer_disable_irq(TIM2, TIM_DIER_CC1IE);	// Disable interrupt on Capture/Compare1, but keeps on overflow
 8000bb6:	2102      	movs	r1, #2
 8000bb8:	f04f 4080 	mov.w	r0, #1073741824	; 0x40000000
 8000bbc:	f001 ff70 	bl	8002aa0 <timer_disable_irq>
	command_ok = false; //Here command_OK is initialized
 8000bc0:	4b0a      	ldr	r3, [pc, #40]	; (8000bec <send_start_bit_now+0x38>)
	gpio_set(PS2_DATA_PIN_PORT, PS2_DATA_PIN_ID);
 8000bc2:	480b      	ldr	r0, [pc, #44]	; (8000bf0 <send_start_bit_now+0x3c>)
	command_ok = false; //Here command_OK is initialized
 8000bc4:	2200      	movs	r2, #0
	gpio_set(PS2_DATA_PIN_PORT, PS2_DATA_PIN_ID);
 8000bc6:	2120      	movs	r1, #32
	command_ok = false; //Here command_OK is initialized
 8000bc8:	701a      	strb	r2, [r3, #0]
	gpio_set(PS2_DATA_PIN_PORT, PS2_DATA_PIN_ID);
 8000bca:	f001 fcee 	bl	80025aa <gpio_set>
	gpio_clear(PS2_CLOCK_PIN_PORT, PS2_CLOCK_PIN_ID);
 8000bce:	4809      	ldr	r0, [pc, #36]	; (8000bf4 <send_start_bit_now+0x40>)
 8000bd0:	f44f 4100 	mov.w	r1, #32768	; 0x8000
 8000bd4:	f001 fceb 	bl	80025ae <gpio_clear>
	gpio_clear(BIT0_PIN_PORT, BIT0_PIN_ID);	//debug (Start bit)
 8000bd8:	4806      	ldr	r0, [pc, #24]	; (8000bf4 <send_start_bit_now+0x40>)
 8000bda:	2102      	movs	r1, #2
 8000bdc:	f001 fce7 	bl	80025ae <gpio_clear>
}
 8000be0:	e8bd 4008 	ldmia.w	sp!, {r3, lr}
	delay_usec(120, send_start_bit2); //wait 120usec and go to send_start_bit2 on TIM2 overflow interrupt
 8000be4:	4904      	ldr	r1, [pc, #16]	; (8000bf8 <send_start_bit_now+0x44>)
 8000be6:	2078      	movs	r0, #120	; 0x78
 8000be8:	f001 b9bc 	b.w	8001f64 <delay_usec>
 8000bec:	200004f3 	strdcs	r0, [r0], -r3
 8000bf0:	40020400 	andmi	r0, r2, r0, lsl #8
 8000bf4:	40020000 	andmi	r0, r2, r0
 8000bf8:	08000b95 	stmdaeq	r0, {r0, r2, r4, r7, r8, r9, fp}

08000bfc <send_start_bit3>:


void send_start_bit3(void) //Third part of send_start_bit
{
 8000bfc:	b508      	push	{r3, lr}
	prev_systicks = systicks;
 8000bfe:	4b09      	ldr	r3, [pc, #36]	; (8000c24 <send_start_bit3+0x28>)
	//Rise clock edge starts the PS/2 device to receive command/argument
	gpio_set(PS2_CLOCK_PIN_PORT, PS2_CLOCK_PIN_ID);
 8000c00:	4809      	ldr	r0, [pc, #36]	; (8000c28 <send_start_bit3+0x2c>)
	prev_systicks = systicks;
 8000c02:	681a      	ldr	r2, [r3, #0]
 8000c04:	4b09      	ldr	r3, [pc, #36]	; (8000c2c <send_start_bit3+0x30>)
	gpio_set(PS2_CLOCK_PIN_PORT, PS2_CLOCK_PIN_ID);
 8000c06:	f44f 4100 	mov.w	r1, #32768	; 0x8000
	prev_systicks = systicks;
 8000c0a:	601a      	str	r2, [r3, #0]
	gpio_set(PS2_CLOCK_PIN_PORT, PS2_CLOCK_PIN_ID);
 8000c0c:	f001 fccd 	bl	80025aa <gpio_set>

	ps2int_TX_bit_idx = 1;
 8000c10:	4b07      	ldr	r3, [pc, #28]	; (8000c30 <send_start_bit3+0x34>)
 8000c12:	2201      	movs	r2, #1
 8000c14:	701a      	strb	r2, [r3, #0]

	prepares_capture(TIM2);
}
 8000c16:	e8bd 4008 	ldmia.w	sp!, {r3, lr}
	prepares_capture(TIM2);
 8000c1a:	f04f 4080 	mov.w	r0, #1073741824	; 0x40000000
 8000c1e:	f001 b9cb 	b.w	8001fb8 <prepares_capture>
 8000c22:	bf00      	nop
 8000c24:	20000558 	andcs	r0, r0, r8, asr r5
 8000c28:	40020000 	andmi	r0, r2, r0
 8000c2c:	200004fc 	strdcs	r0, [r0], -ip
 8000c30:	20000548 	andcs	r0, r0, r8, asr #10

08000c34 <power_off_ps2_keyboard>:
{
 8000c34:	b508      	push	{r3, lr}
	gpio_clear(PS2_POWER_CTR_PORT, PS2_POWER_CTR_PIN);
 8000c36:	4804      	ldr	r0, [pc, #16]	; (8000c48 <power_off_ps2_keyboard+0x14>)
 8000c38:	2110      	movs	r1, #16
 8000c3a:	f001 fcb8 	bl	80025ae <gpio_clear>
}
 8000c3e:	e8bd 4008 	ldmia.w	sp!, {r3, lr}
	usart_send_string((uint8_t*)"PS/2 interface powered down.\r\n\n");
 8000c42:	4802      	ldr	r0, [pc, #8]	; (8000c4c <power_off_ps2_keyboard+0x18>)
 8000c44:	f001 b871 	b.w	8001d2a <usart_send_string>
 8000c48:	40020000 	andmi	r0, r2, r0
 8000c4c:	08003ec0 	stmdaeq	r0, {r6, r7, r9, sl, fp, ip, sp}

08000c50 <init_ps2_recv_buffer>:
	ps2_recv_buff_put=0;
 8000c50:	4a05      	ldr	r2, [pc, #20]	; (8000c68 <init_ps2_recv_buffer+0x18>)
 8000c52:	2300      	movs	r3, #0
 8000c54:	7013      	strb	r3, [r2, #0]
	ps2_recv_buff_get=0;
 8000c56:	4a05      	ldr	r2, [pc, #20]	; (8000c6c <init_ps2_recv_buffer+0x1c>)
 8000c58:	7013      	strb	r3, [r2, #0]
		ps2_recv_buffer[i]=0;
 8000c5a:	4a05      	ldr	r2, [pc, #20]	; (8000c70 <init_ps2_recv_buffer+0x20>)
 8000c5c:	4619      	mov	r1, r3
 8000c5e:	54d1      	strb	r1, [r2, r3]
	for(uint8_t i=0; i<PS2_RECV_BUFFER_SIZE; ++i)
 8000c60:	3301      	adds	r3, #1
 8000c62:	2b40      	cmp	r3, #64	; 0x40
 8000c64:	d1fb      	bne.n	8000c5e <init_ps2_recv_buffer+0xe>
}
 8000c66:	4770      	bx	lr
 8000c68:	20000506 	andcs	r0, r0, r6, lsl #10
 8000c6c:	20000505 	andcs	r0, r0, r5, lsl #10
 8000c70:	20000507 	andcs	r0, r0, r7, lsl #10

08000c74 <power_on_ps2_keyboard>:
{
 8000c74:	b538      	push	{r3, r4, r5, lr}
	gpio_set_af(PS2_CLOCK_PIN_PORT, GPIO_AF1, PS2_POWER_CTR_PIN | PS2_CLOCK_PIN_ID);
 8000c76:	4c33      	ldr	r4, [pc, #204]	; (8000d44 <power_on_ps2_keyboard+0xd0>)
	gpio_set_af(PS2_DATA_PIN_PORT, GPIO_AF1, PS2_DATA_PIN_ID);
 8000c78:	4d33      	ldr	r5, [pc, #204]	; (8000d48 <power_on_ps2_keyboard+0xd4>)
	gpio_set_af(PS2_CLOCK_PIN_PORT, GPIO_AF1, PS2_POWER_CTR_PIN | PS2_CLOCK_PIN_ID);
 8000c7a:	4620      	mov	r0, r4
 8000c7c:	f248 0210 	movw	r2, #32784	; 0x8010
 8000c80:	2101      	movs	r1, #1
 8000c82:	f001 fce9 	bl	8002658 <gpio_set_af>
	gpio_set_af(PS2_DATA_PIN_PORT, GPIO_AF1, PS2_DATA_PIN_ID);
 8000c86:	4628      	mov	r0, r5
 8000c88:	2220      	movs	r2, #32
 8000c8a:	2101      	movs	r1, #1
 8000c8c:	f001 fce4 	bl	8002658 <gpio_set_af>
	gpio_mode_setup(PS2_POWER_CTR_PORT, GPIO_MODE_OUTPUT, GPIO_PUPD_NONE, PS2_POWER_CTR_PIN);
 8000c90:	4620      	mov	r0, r4
 8000c92:	2310      	movs	r3, #16
 8000c94:	2200      	movs	r2, #0
 8000c96:	2101      	movs	r1, #1
 8000c98:	f001 fca3 	bl	80025e2 <gpio_mode_setup>
	gpio_set_output_options(PS2_POWER_CTR_PORT, GPIO_OTYPE_PP, GPIO_OSPEED_100MHZ, PS2_POWER_CTR_PIN);
 8000c9c:	2310      	movs	r3, #16
 8000c9e:	2203      	movs	r2, #3
 8000ca0:	4620      	mov	r0, r4
 8000ca2:	2100      	movs	r1, #0
 8000ca4:	f001 fcbd 	bl	8002622 <gpio_set_output_options>
	gpio_set(PS2_POWER_CTR_PORT, PS2_POWER_CTR_PIN);
 8000ca8:	4620      	mov	r0, r4
 8000caa:	2110      	movs	r1, #16
 8000cac:	f001 fc7d 	bl	80025aa <gpio_set>
	gpio_set(PS2_CLOCK_PIN_PORT, PS2_CLOCK_PIN_ID); //Hi-Z
 8000cb0:	4620      	mov	r0, r4
 8000cb2:	f44f 4100 	mov.w	r1, #32768	; 0x8000
 8000cb6:	f001 fc78 	bl	80025aa <gpio_set>
	gpio_mode_setup(PS2_CLOCK_PIN_PORT, GPIO_MODE_OUTPUT, GPIO_PUPD_PULLUP, PS2_CLOCK_PIN_ID);
 8000cba:	2201      	movs	r2, #1
 8000cbc:	4611      	mov	r1, r2
 8000cbe:	4620      	mov	r0, r4
 8000cc0:	f44f 4300 	mov.w	r3, #32768	; 0x8000
 8000cc4:	f001 fc8d 	bl	80025e2 <gpio_mode_setup>
	gpio_set_output_options(PS2_CLOCK_PIN_PORT, GPIO_OTYPE_OD, GPIO_OSPEED_100MHZ, PS2_CLOCK_PIN_ID);
 8000cc8:	f44f 4300 	mov.w	r3, #32768	; 0x8000
 8000ccc:	2203      	movs	r2, #3
 8000cce:	4620      	mov	r0, r4
 8000cd0:	2101      	movs	r1, #1
 8000cd2:	f001 fca6 	bl	8002622 <gpio_set_output_options>
	exti_select_source(PS2_CLOCK_PIN_EXTI, PS2_CLOCK_PIN_PORT);
 8000cd6:	4621      	mov	r1, r4
 8000cd8:	f44f 4000 	mov.w	r0, #32768	; 0x8000
 8000cdc:	f001 fbbe 	bl	800245c <exti_select_source>
	exti_set_trigger(PS2_CLOCK_PIN_EXTI, EXTI_TRIGGER_FALLING);
 8000ce0:	2101      	movs	r1, #1
 8000ce2:	f44f 4000 	mov.w	r0, #32768	; 0x8000
 8000ce6:	f001 fb69 	bl	80023bc <exti_set_trigger>
	exti_reset_request(PS2_CLOCK_PIN_EXTI);
 8000cea:	f44f 4000 	mov.w	r0, #32768	; 0x8000
 8000cee:	f001 fba7 	bl	8002440 <exti_reset_request>
	exti_enable_request(PS2_CLOCK_PIN_EXTI);
 8000cf2:	f44f 4000 	mov.w	r0, #32768	; 0x8000
 8000cf6:	f001 fb85 	bl	8002404 <exti_enable_request>
	gpio_port_config_lock(PS2_CLOCK_PIN_PORT, PS2_CLOCK_PIN_ID);
 8000cfa:	4620      	mov	r0, r4
 8000cfc:	f44f 4100 	mov.w	r1, #32768	; 0x8000
 8000d00:	f001 fc67 	bl	80025d2 <gpio_port_config_lock>
	gpio_set(PS2_DATA_PIN_PORT, PS2_DATA_PIN_ID);		//Hi-Z
 8000d04:	4628      	mov	r0, r5
 8000d06:	2120      	movs	r1, #32
 8000d08:	f001 fc4f 	bl	80025aa <gpio_set>
	gpio_mode_setup(PS2_DATA_PIN_PORT, GPIO_MODE_OUTPUT, GPIO_PUPD_PULLUP, PS2_DATA_PIN_ID);
 8000d0c:	2201      	movs	r2, #1
 8000d0e:	4611      	mov	r1, r2
 8000d10:	4628      	mov	r0, r5
 8000d12:	2320      	movs	r3, #32
 8000d14:	f001 fc65 	bl	80025e2 <gpio_mode_setup>
	gpio_set_output_options(PS2_DATA_PIN_PORT, GPIO_OTYPE_OD, GPIO_OSPEED_25MHZ, PS2_DATA_PIN_ID);
 8000d18:	2201      	movs	r2, #1
 8000d1a:	2320      	movs	r3, #32
 8000d1c:	4611      	mov	r1, r2
 8000d1e:	4628      	mov	r0, r5
 8000d20:	f001 fc7f 	bl	8002622 <gpio_set_output_options>
	gpio_port_config_lock(PS2_DATA_PIN_PORT, PS2_DATA_PIN_ID);
 8000d24:	2120      	movs	r1, #32
 8000d26:	4628      	mov	r0, r5
 8000d28:	f001 fc53 	bl	80025d2 <gpio_port_config_lock>
	nvic_enable_irq(NVIC_EXTI15_10_IRQ);
 8000d2c:	2028      	movs	r0, #40	; 0x28
 8000d2e:	f001 ff93 	bl	8002c58 <nvic_enable_irq>
	nvic_set_priority(NVIC_EXTI15_10_IRQ, 50);
 8000d32:	2132      	movs	r1, #50	; 0x32
 8000d34:	2028      	movs	r0, #40	; 0x28
 8000d36:	f001 ff9d 	bl	8002c74 <nvic_set_priority>
}
 8000d3a:	e8bd 4038 	ldmia.w	sp!, {r3, r4, r5, lr}
	init_ps2_recv_buffer();
 8000d3e:	f7ff bf87 	b.w	8000c50 <init_ps2_recv_buffer>
 8000d42:	bf00      	nop
 8000d44:	40020000 	andmi	r0, r2, r0
 8000d48:	40020400 	andmi	r0, r2, r0, lsl #8

08000d4c <available_ps2_byte>:
	if(i == ps2_recv_buff_put)
 8000d4c:	4a03      	ldr	r2, [pc, #12]	; (8000d5c <available_ps2_byte+0x10>)
	uint8_t i = ps2_recv_buff_get;
 8000d4e:	4b04      	ldr	r3, [pc, #16]	; (8000d60 <available_ps2_byte+0x14>)
 8000d50:	781b      	ldrb	r3, [r3, #0]
	if(i == ps2_recv_buff_put)
 8000d52:	7810      	ldrb	r0, [r2, #0]
}
 8000d54:	1ac0      	subs	r0, r0, r3
 8000d56:	bf18      	it	ne
 8000d58:	2001      	movne	r0, #1
 8000d5a:	4770      	bx	lr
 8000d5c:	20000506 	andcs	r0, r0, r6, lsl #10
 8000d60:	20000505 	andcs	r0, r0, r5, lsl #10

08000d64 <get_ps2_byte>:
{
 8000d64:	b510      	push	{r4, lr}
	i = ps2_recv_buff_get;
 8000d66:	4a08      	ldr	r2, [pc, #32]	; (8000d88 <get_ps2_byte+0x24>)
	if(i == ps2_recv_buff_put)
 8000d68:	4c08      	ldr	r4, [pc, #32]	; (8000d8c <get_ps2_byte+0x28>)
	i = ps2_recv_buff_get;
 8000d6a:	7811      	ldrb	r1, [r2, #0]
	if(i == ps2_recv_buff_put)
 8000d6c:	7824      	ldrb	r4, [r4, #0]
	i = ps2_recv_buff_get;
 8000d6e:	b2cb      	uxtb	r3, r1
	if(i == ps2_recv_buff_put)
 8000d70:	428c      	cmp	r4, r1
	result = buff[i];
 8000d72:	bf1f      	itttt	ne
 8000d74:	5cc0      	ldrbne	r0, [r0, r3]
	i++;
 8000d76:	3301      	addne	r3, #1
	ps2_recv_buff_get = i & (uint16_t)(PS2_RECV_BUFFER_SIZE - 1); //if(i >= (uint16_t)SERIAL_RING_BUFFER_SIZE)	i = 0;
 8000d78:	f003 033f 	andne.w	r3, r3, #63	; 0x3f
 8000d7c:	7013      	strbne	r3, [r2, #0]
	result = buff[i];
 8000d7e:	bf14      	ite	ne
 8000d80:	b2c0      	uxtbne	r0, r0
		return 0;
 8000d82:	2000      	moveq	r0, #0
}
 8000d84:	bd10      	pop	{r4, pc}
 8000d86:	bf00      	nop
 8000d88:	20000505 	andcs	r0, r0, r5, lsl #10
 8000d8c:	20000506 	andcs	r0, r0, r6, lsl #10

08000d90 <send_start_bit_next>:
	delay_usec(x_usec, send_start_bit_now); //wait x_usec and go to send_start_bit on TIM2 overflow interrupt
 8000d90:	4901      	ldr	r1, [pc, #4]	; (8000d98 <send_start_bit_next+0x8>)
 8000d92:	f001 b8e7 	b.w	8001f64 <delay_usec>
 8000d96:	bf00      	nop
 8000d98:	08000bb5 	stmdaeq	r0, {r0, r2, r4, r5, r7, r8, r9, fp}

08000d9c <ps2_clock_send>:

void ps2_clock_send(bool ps2datapin_logicstate)
{
	//gpio_set(BIT0_PIN_PORT, BIT0_PIN_ID);//Debug Start bit ended. Set BIT0
	//uint8_t mountstring[16]; //Used in usart_send_string()
	prev_systicks = systicks;
 8000d9c:	4b3f      	ldr	r3, [pc, #252]	; (8000e9c <ps2_clock_send+0x100>)
 8000d9e:	681a      	ldr	r2, [r3, #0]
 8000da0:	4b3f      	ldr	r3, [pc, #252]	; (8000ea0 <ps2_clock_send+0x104>)
{
 8000da2:	b570      	push	{r4, r5, r6, lr}
	prev_systicks = systicks;
 8000da4:	601a      	str	r2, [r3, #0]
	//Time check - The same for all bits
	if (time_between_ps2clk > 10000) // time >10ms
 8000da6:	4b3f      	ldr	r3, [pc, #252]	; (8000ea4 <ps2_clock_send+0x108>)
 8000da8:	e9d3 1300 	ldrd	r1, r3, [r3]
 8000dac:	f242 7211 	movw	r2, #10001	; 0x2711
 8000db0:	4291      	cmp	r1, r2
 8000db2:	f173 0300 	sbcs.w	r3, r3, #0
{
 8000db6:	4606      	mov	r6, r0
	if (time_between_ps2clk > 10000) // time >10ms
 8000db8:	d302      	bcc.n	8000dc0 <ps2_clock_send+0x24>
	{
		usart_send_string((uint8_t*)"Time > 10ms on TX");
 8000dba:	483b      	ldr	r0, [pc, #236]	; (8000ea8 <ps2_clock_send+0x10c>)
 8000dbc:	f000 ffb5 	bl	8001d2a <usart_send_string>
	}
	//|varivel| = `if`(condio) ? <valor1 se true> : <valor2 se false>;:
	//Only two TX states of send: ps2_send_command & send_argument
	uint8_t data_byte = (ps2int_state == PS2INT_SEND_COMMAND) ? command : argument;
 8000dc0:	4d3a      	ldr	r5, [pc, #232]	; (8000eac <ps2_clock_send+0x110>)
	if( (ps2int_TX_bit_idx>=1) && (ps2int_TX_bit_idx<9) )
 8000dc2:	4c3b      	ldr	r4, [pc, #236]	; (8000eb0 <ps2_clock_send+0x114>)
	uint8_t data_byte = (ps2int_state == PS2INT_SEND_COMMAND) ? command : argument;
 8000dc4:	882b      	ldrh	r3, [r5, #0]
 8000dc6:	f240 4201 	movw	r2, #1025	; 0x401
 8000dca:	b29b      	uxth	r3, r3
 8000dcc:	4293      	cmp	r3, r2
 8000dce:	bf0c      	ite	eq
 8000dd0:	4b38      	ldreq	r3, [pc, #224]	; (8000eb4 <ps2_clock_send+0x118>)
 8000dd2:	4b39      	ldrne	r3, [pc, #228]	; (8000eb8 <ps2_clock_send+0x11c>)
 8000dd4:	781b      	ldrb	r3, [r3, #0]
 8000dd6:	b2d8      	uxtb	r0, r3
	if( (ps2int_TX_bit_idx>=1) && (ps2int_TX_bit_idx<9) )
 8000dd8:	7823      	ldrb	r3, [r4, #0]
 8000dda:	b1ab      	cbz	r3, 8000e08 <ps2_clock_send+0x6c>
 8000ddc:	7823      	ldrb	r3, [r4, #0]
 8000dde:	2b08      	cmp	r3, #8
 8000de0:	d812      	bhi.n	8000e08 <ps2_clock_send+0x6c>
	{
		bool bit = data_byte&(1 << (ps2int_TX_bit_idx - 1));
 8000de2:	7823      	ldrb	r3, [r4, #0]
 8000de4:	1e5a      	subs	r2, r3, #1
 8000de6:	2301      	movs	r3, #1
 8000de8:	4093      	lsls	r3, r2
		//User messages
		/*usart_send_string((uint8_t*)"sent bit #");
		conv_uint8_to_2a_hex(ps2int_TX_bit_idx, &mountstring[0]);
		usart_send_string((uint8_t*)&mountstring[0];
		usart_send_string((uint8_t*)"as "); //This print continues below*/
		if(bit)
 8000dea:	4203      	tst	r3, r0
		{
			gpio_set(PS2_DATA_PIN_PORT, PS2_DATA_PIN_ID);
 8000dec:	f04f 0120 	mov.w	r1, #32
 8000df0:	4832      	ldr	r0, [pc, #200]	; (8000ebc <ps2_clock_send+0x120>)
		if(bit)
 8000df2:	d006      	beq.n	8000e02 <ps2_clock_send+0x66>
			gpio_set(PS2_DATA_PIN_PORT, PS2_DATA_PIN_ID);
 8000df4:	f001 fbd9 	bl	80025aa <gpio_set>
		{
			gpio_clear(PS2_DATA_PIN_PORT, PS2_DATA_PIN_ID);
			//User messages
			//usart_send_string((uint8_t*)"(0)\n");
		}
		ps2int_TX_bit_idx++;
 8000df8:	7823      	ldrb	r3, [r4, #0]
 8000dfa:	3301      	adds	r3, #1
 8000dfc:	b2db      	uxtb	r3, r3
		{
			gpio_clear(PS2_DATA_PIN_PORT, PS2_DATA_PIN_ID);
			//User messages
			//usart_send_string((uint8_t*)"(0)\n");
		}
		ps2int_TX_bit_idx = 10;
 8000dfe:	7023      	strb	r3, [r4, #0]
			gpio_set(PS2_DATA_PIN_PORT, PS2_DATA_PIN_ID);
			ps2int_state = PS2INT_RECEIVE;
			ps2int_RX_bit_idx =  0;
		}
	}
}
 8000e00:	bd70      	pop	{r4, r5, r6, pc}
			gpio_clear(PS2_DATA_PIN_PORT, PS2_DATA_PIN_ID);
 8000e02:	f001 fbd4 	bl	80025ae <gpio_clear>
 8000e06:	e7f7      	b.n	8000df8 <ps2_clock_send+0x5c>
	else if(ps2int_TX_bit_idx == 9)
 8000e08:	7823      	ldrb	r3, [r4, #0]
 8000e0a:	2b09      	cmp	r3, #9
 8000e0c:	d10f      	bne.n	8000e2e <ps2_clock_send+0x92>
		bool parity =! __builtin_parity(data_byte);
 8000e0e:	f002 f875 	bl	8002efc <__paritysi2>
			gpio_set(PS2_DATA_PIN_PORT, PS2_DATA_PIN_ID);
 8000e12:	2120      	movs	r1, #32
		if(parity)
 8000e14:	b938      	cbnz	r0, 8000e26 <ps2_clock_send+0x8a>
			gpio_set(PS2_DATA_PIN_PORT, PS2_DATA_PIN_ID);
 8000e16:	f100 4080 	add.w	r0, r0, #1073741824	; 0x40000000
 8000e1a:	f500 3001 	add.w	r0, r0, #132096	; 0x20400
 8000e1e:	f001 fbc4 	bl	80025aa <gpio_set>
		ps2int_TX_bit_idx = 10;
 8000e22:	230a      	movs	r3, #10
 8000e24:	e7eb      	b.n	8000dfe <ps2_clock_send+0x62>
			gpio_clear(PS2_DATA_PIN_PORT, PS2_DATA_PIN_ID);
 8000e26:	4825      	ldr	r0, [pc, #148]	; (8000ebc <ps2_clock_send+0x120>)
 8000e28:	f001 fbc1 	bl	80025ae <gpio_clear>
 8000e2c:	e7f9      	b.n	8000e22 <ps2_clock_send+0x86>
	else if(ps2int_TX_bit_idx == 10)
 8000e2e:	7823      	ldrb	r3, [r4, #0]
 8000e30:	2b0a      	cmp	r3, #10
 8000e32:	d105      	bne.n	8000e40 <ps2_clock_send+0xa4>
		gpio_set(PS2_DATA_PIN_PORT, PS2_DATA_PIN_ID);
 8000e34:	4821      	ldr	r0, [pc, #132]	; (8000ebc <ps2_clock_send+0x120>)
 8000e36:	2120      	movs	r1, #32
 8000e38:	f001 fbb7 	bl	80025aa <gpio_set>
		ps2int_TX_bit_idx = 11;
 8000e3c:	230b      	movs	r3, #11
 8000e3e:	e7de      	b.n	8000dfe <ps2_clock_send+0x62>
	else if(ps2int_TX_bit_idx >= 11)
 8000e40:	7823      	ldrb	r3, [r4, #0]
 8000e42:	2b0a      	cmp	r3, #10
 8000e44:	d9dc      	bls.n	8000e00 <ps2_clock_send+0x64>
		if(ps2datapin_logicstate == false) // ACK bit ok
 8000e46:	b14e      	cbz	r6, 8000e5c <ps2_clock_send+0xc0>
			gpio_set(PS2_DATA_PIN_PORT, PS2_DATA_PIN_ID);
 8000e48:	481c      	ldr	r0, [pc, #112]	; (8000ebc <ps2_clock_send+0x120>)
 8000e4a:	2120      	movs	r1, #32
 8000e4c:	f001 fbad 	bl	80025aa <gpio_set>
			ps2int_state = PS2INT_RECEIVE; //force to receive_status in absence of something better
 8000e50:	f44f 6380 	mov.w	r3, #1024	; 0x400
 8000e54:	802b      	strh	r3, [r5, #0]
			ps2int_RX_bit_idx = 0;
 8000e56:	4b1a      	ldr	r3, [pc, #104]	; (8000ec0 <ps2_clock_send+0x124>)
 8000e58:	2200      	movs	r2, #0
 8000e5a:	701a      	strb	r2, [r3, #0]
		ps2int_TX_bit_idx = 0;	//Prepares for the next send
 8000e5c:	2600      	movs	r6, #0
 8000e5e:	7026      	strb	r6, [r4, #0]
		if(ps2int_state == PS2INT_SEND_COMMAND)
 8000e60:	882b      	ldrh	r3, [r5, #0]
 8000e62:	f240 4201 	movw	r2, #1025	; 0x401
 8000e66:	b29b      	uxth	r3, r3
 8000e68:	4293      	cmp	r3, r2
 8000e6a:	d103      	bne.n	8000e74 <ps2_clock_send+0xd8>
			ps2int_state = PS2INT_WAIT_FOR_COMMAND_ACK;
 8000e6c:	f240 4302 	movw	r3, #1026	; 0x402
			ps2int_state = PS2INT_WAIT_FOR_ARGUMENT_ACK;
 8000e70:	802b      	strh	r3, [r5, #0]
 8000e72:	e7c5      	b.n	8000e00 <ps2_clock_send+0x64>
		else if(ps2int_state == PS2INT_SEND_ARGUMENT)
 8000e74:	882b      	ldrh	r3, [r5, #0]
 8000e76:	f240 4203 	movw	r2, #1027	; 0x403
 8000e7a:	b29b      	uxth	r3, r3
 8000e7c:	4293      	cmp	r3, r2
 8000e7e:	d102      	bne.n	8000e86 <ps2_clock_send+0xea>
			ps2int_state = PS2INT_WAIT_FOR_ARGUMENT_ACK;
 8000e80:	f240 4304 	movw	r3, #1028	; 0x404
 8000e84:	e7f4      	b.n	8000e70 <ps2_clock_send+0xd4>
			gpio_set(PS2_DATA_PIN_PORT, PS2_DATA_PIN_ID);
 8000e86:	480d      	ldr	r0, [pc, #52]	; (8000ebc <ps2_clock_send+0x120>)
 8000e88:	2120      	movs	r1, #32
 8000e8a:	f001 fb8e 	bl	80025aa <gpio_set>
			ps2int_state = PS2INT_RECEIVE;
 8000e8e:	f44f 6380 	mov.w	r3, #1024	; 0x400
 8000e92:	802b      	strh	r3, [r5, #0]
			ps2int_RX_bit_idx =  0;
 8000e94:	4b0a      	ldr	r3, [pc, #40]	; (8000ec0 <ps2_clock_send+0x124>)
 8000e96:	701e      	strb	r6, [r3, #0]
}
 8000e98:	e7b2      	b.n	8000e00 <ps2_clock_send+0x64>
 8000e9a:	bf00      	nop
 8000e9c:	20000558 	andcs	r0, r0, r8, asr r5
 8000ea0:	200004fc 	strdcs	r0, [r0], -ip
 8000ea4:	20000790 	mulcs	r0, r0, r7
 8000ea8:	08003ee0 	stmdaeq	r0, {r5, r6, r7, r9, sl, fp, ip, sp}
 8000eac:	2000054a 	andcs	r0, r0, sl, asr #10
 8000eb0:	20000548 	andcs	r0, r0, r8, asr #10
 8000eb4:	200004f2 	strdcs	r0, [r0], -r2
 8000eb8:	200004f1 	strdcs	r0, [r0], -r1
 8000ebc:	40020400 	andmi	r0, r2, r0, lsl #8
 8000ec0:	20000547 	andcs	r0, r0, r7, asr #10

08000ec4 <ps2_clock_receive>:


void ps2_clock_receive(bool ps2datapin_logicstate)
{
 8000ec4:	b5f8      	push	{r3, r4, r5, r6, r7, lr}
	static uint8_t data_word, stop_bit, parity_bit;
	//uint8_t mountstring[16]; //Used in usart_send_string()

	//Verify RX timeout, that is quite restricted, if compared to Send Command/Argument
	if ( (ps2int_RX_bit_idx != 0) && (time_between_ps2clk > 120) )  //because if RX_bit_idx == 0 will be the reset
 8000ec6:	4c51      	ldr	r4, [pc, #324]	; (800100c <ps2_clock_receive+0x148>)
 8000ec8:	7823      	ldrb	r3, [r4, #0]
{
 8000eca:	4606      	mov	r6, r0
	if ( (ps2int_RX_bit_idx != 0) && (time_between_ps2clk > 120) )  //because if RX_bit_idx == 0 will be the reset
 8000ecc:	b143      	cbz	r3, 8000ee0 <ps2_clock_receive+0x1c>
 8000ece:	4b50      	ldr	r3, [pc, #320]	; (8001010 <ps2_clock_receive+0x14c>)
 8000ed0:	e9d3 2300 	ldrd	r2, r3, [r3]
 8000ed4:	2a79      	cmp	r2, #121	; 0x79
 8000ed6:	f173 0300 	sbcs.w	r3, r3, #0
	{	
		//usart_send_string((uint8_t*)"ps2_clock_receive - Timeout\n");
		ps2int_RX_bit_idx = 0;
 8000eda:	bf24      	itt	cs
 8000edc:	2300      	movcs	r3, #0
 8000ede:	7023      	strbcs	r3, [r4, #0]
	}
	prev_systicks = systicks;
 8000ee0:	4b4c      	ldr	r3, [pc, #304]	; (8001014 <ps2_clock_receive+0x150>)
 8000ee2:	681a      	ldr	r2, [r3, #0]
 8000ee4:	4b4c      	ldr	r3, [pc, #304]	; (8001018 <ps2_clock_receive+0x154>)
 8000ee6:	601a      	str	r2, [r3, #0]

	if(ps2int_RX_bit_idx == 0)
 8000ee8:	7823      	ldrb	r3, [r4, #0]
 8000eea:	f003 05ff 	and.w	r5, r3, #255	; 0xff
 8000eee:	b98b      	cbnz	r3, 8000f14 <ps2_clock_receive+0x50>
	{
		//Force this interface to put data line in Hi-Z to avoid unspected behavior in case of errors
		gpio_set(PS2_DATA_PIN_PORT, PS2_DATA_PIN_ID);
 8000ef0:	484a      	ldr	r0, [pc, #296]	; (800101c <ps2_clock_receive+0x158>)
 8000ef2:	2120      	movs	r1, #32
 8000ef4:	f001 fb59 	bl	80025aa <gpio_set>
		data_word = 0;
 8000ef8:	4b49      	ldr	r3, [pc, #292]	; (8001020 <ps2_clock_receive+0x15c>)
 8000efa:	701d      	strb	r5, [r3, #0]
		stop_bit = 0xff;
		parity_bit = 0xff;
 8000efc:	4b49      	ldr	r3, [pc, #292]	; (8001024 <ps2_clock_receive+0x160>)
 8000efe:	22ff      	movs	r2, #255	; 0xff
 8000f00:	701a      	strb	r2, [r3, #0]
		ps2int_RX_bit_idx = 1; //Points to the next bit
 8000f02:	2301      	movs	r3, #1
 8000f04:	7023      	strb	r3, [r4, #0]
		bool start_bit = ps2datapin_logicstate;
		if(start_bit)
 8000f06:	b126      	cbz	r6, 8000f12 <ps2_clock_receive+0x4e>
		{
			fail_count++;
 8000f08:	4a47      	ldr	r2, [pc, #284]	; (8001028 <ps2_clock_receive+0x164>)
  		ps2int_RX_bit_idx = 0; //reset
 8000f0a:	7025      	strb	r5, [r4, #0]
			fail_count++;
 8000f0c:	8813      	ldrh	r3, [r2, #0]
 8000f0e:	3301      	adds	r3, #1
 8000f10:	8013      	strh	r3, [r2, #0]
			usart_send_string((uint8_t*)"\n"); */
			fail_count++;
			ps2int_RX_bit_idx = 0;
		}
	}	//else if(ps2int_RX_bit_idx==10)
}
 8000f12:	bdf8      	pop	{r3, r4, r5, r6, r7, pc}
	else if( (ps2int_RX_bit_idx>0) && (ps2int_RX_bit_idx<9) ) // collect bits 1 to 8 (D0 to D7)
 8000f14:	7823      	ldrb	r3, [r4, #0]
 8000f16:	b17b      	cbz	r3, 8000f38 <ps2_clock_receive+0x74>
 8000f18:	7823      	ldrb	r3, [r4, #0]
 8000f1a:	2b08      	cmp	r3, #8
 8000f1c:	d80c      	bhi.n	8000f38 <ps2_clock_receive+0x74>
		data_word |= (ps2datapin_logicstate << (ps2int_RX_bit_idx - 1));
 8000f1e:	7823      	ldrb	r3, [r4, #0]
 8000f20:	4a3f      	ldr	r2, [pc, #252]	; (8001020 <ps2_clock_receive+0x15c>)
 8000f22:	3b01      	subs	r3, #1
 8000f24:	fa06 f003 	lsl.w	r0, r6, r3
 8000f28:	7813      	ldrb	r3, [r2, #0]
 8000f2a:	4318      	orrs	r0, r3
 8000f2c:	7010      	strb	r0, [r2, #0]
		ps2int_RX_bit_idx++;
 8000f2e:	7823      	ldrb	r3, [r4, #0]
 8000f30:	3301      	adds	r3, #1
 8000f32:	b2db      	uxtb	r3, r3
			ps2int_RX_bit_idx = 0;
 8000f34:	7023      	strb	r3, [r4, #0]
}
 8000f36:	e7ec      	b.n	8000f12 <ps2_clock_receive+0x4e>
	else if(ps2int_RX_bit_idx == 9)
 8000f38:	7823      	ldrb	r3, [r4, #0]
 8000f3a:	2b09      	cmp	r3, #9
 8000f3c:	d102      	bne.n	8000f44 <ps2_clock_receive+0x80>
		parity_bit = ps2datapin_logicstate;
 8000f3e:	4b39      	ldr	r3, [pc, #228]	; (8001024 <ps2_clock_receive+0x160>)
 8000f40:	701e      	strb	r6, [r3, #0]
 8000f42:	e7f4      	b.n	8000f2e <ps2_clock_receive+0x6a>
	else if(ps2int_RX_bit_idx == 10)
 8000f44:	7823      	ldrb	r3, [r4, #0]
 8000f46:	2b0a      	cmp	r3, #10
 8000f48:	d1e3      	bne.n	8000f12 <ps2_clock_receive+0x4e>
		bool parity_ok = __builtin_parity((data_word<<1)|parity_bit);
 8000f4a:	4b35      	ldr	r3, [pc, #212]	; (8001020 <ps2_clock_receive+0x15c>)
 8000f4c:	781d      	ldrb	r5, [r3, #0]
 8000f4e:	4b35      	ldr	r3, [pc, #212]	; (8001024 <ps2_clock_receive+0x160>)
 8000f50:	7818      	ldrb	r0, [r3, #0]
		ps2int_RX_bit_idx = 0;	//next (reset) PS/2 receive condition
 8000f52:	2700      	movs	r7, #0
		bool parity_ok = __builtin_parity((data_word<<1)|parity_bit);
 8000f54:	ea40 0045 	orr.w	r0, r0, r5, lsl #1
		ps2int_RX_bit_idx = 0;	//next (reset) PS/2 receive condition
 8000f58:	7027      	strb	r7, [r4, #0]
		bool parity_ok = __builtin_parity((data_word<<1)|parity_bit);
 8000f5a:	f001 ffcf 	bl	8002efc <__paritysi2>
		if(parity_ok && (stop_bit == 1) ) //start bit condition was already tested above
 8000f5e:	2800      	cmp	r0, #0
 8000f60:	d04e      	beq.n	8001000 <ps2_clock_receive+0x13c>
 8000f62:	2e00      	cmp	r6, #0
 8000f64:	d04c      	beq.n	8001000 <ps2_clock_receive+0x13c>
			if (ps2int_state == PS2INT_RECEIVE)
 8000f66:	4b31      	ldr	r3, [pc, #196]	; (800102c <ps2_clock_receive+0x168>)
 8000f68:	881a      	ldrh	r2, [r3, #0]
 8000f6a:	b292      	uxth	r2, r2
 8000f6c:	f5b2 6f80 	cmp.w	r2, #1024	; 0x400
 8000f70:	d10d      	bne.n	8000f8e <ps2_clock_receive+0xca>
				uint8_t i = ps2_recv_buff_put;
 8000f72:	4a2f      	ldr	r2, [pc, #188]	; (8001030 <ps2_clock_receive+0x16c>)
				if (i_next != ps2_recv_buff_get)
 8000f74:	482f      	ldr	r0, [pc, #188]	; (8001034 <ps2_clock_receive+0x170>)
				uint8_t i = ps2_recv_buff_put;
 8000f76:	7813      	ldrb	r3, [r2, #0]
				if (i_next != ps2_recv_buff_get)
 8000f78:	7800      	ldrb	r0, [r0, #0]
				uint8_t i = ps2_recv_buff_put;
 8000f7a:	b2d9      	uxtb	r1, r3
				uint8_t i_next = i + 1;
 8000f7c:	3301      	adds	r3, #1
				i_next &= (uint8_t)(PS2_RECV_BUFFER_SIZE - 1);
 8000f7e:	f003 033f 	and.w	r3, r3, #63	; 0x3f
				if (i_next != ps2_recv_buff_get)
 8000f82:	4298      	cmp	r0, r3
 8000f84:	d0c5      	beq.n	8000f12 <ps2_clock_receive+0x4e>
					ps2_recv_buffer[i] = data_word;
 8000f86:	482c      	ldr	r0, [pc, #176]	; (8001038 <ps2_clock_receive+0x174>)
 8000f88:	5445      	strb	r5, [r0, r1]
					ps2_recv_buff_put = i_next;
 8000f8a:	7013      	strb	r3, [r2, #0]
 8000f8c:	e7c1      	b.n	8000f12 <ps2_clock_receive+0x4e>
			else if (ps2int_state == PS2INT_WAIT_FOR_COMMAND_ACK)
 8000f8e:	881a      	ldrh	r2, [r3, #0]
 8000f90:	f240 4102 	movw	r1, #1026	; 0x402
 8000f94:	b292      	uxth	r2, r2
 8000f96:	428a      	cmp	r2, r1
 8000f98:	d123      	bne.n	8000fe2 <ps2_clock_receive+0x11e>
				if(data_word == KB_ACKNOWLEDGE) //0xFA is Acknowledge from PS/2 keyboard
 8000f9a:	2dfa      	cmp	r5, #250	; 0xfa
 8000f9c:	d113      	bne.n	8000fc6 <ps2_clock_receive+0x102>
					if(argument == ARG_NO_ARG) //0xFF is an empty argument
 8000f9e:	4a27      	ldr	r2, [pc, #156]	; (800103c <ps2_clock_receive+0x178>)
 8000fa0:	7812      	ldrb	r2, [r2, #0]
 8000fa2:	2aff      	cmp	r2, #255	; 0xff
 8000fa4:	d107      	bne.n	8000fb6 <ps2_clock_receive+0xf2>
					ps2int_state = PS2INT_RECEIVE;
 8000fa6:	f44f 6280 	mov.w	r2, #1024	; 0x400
 8000faa:	801a      	strh	r2, [r3, #0]
					command_ok = true;
 8000fac:	4b24      	ldr	r3, [pc, #144]	; (8001040 <ps2_clock_receive+0x17c>)
					ps2int_RX_bit_idx = 0;//Prepares for the next PS/2 receive condition
 8000fae:	7027      	strb	r7, [r4, #0]
					command_ok = true;
 8000fb0:	2201      	movs	r2, #1
 8000fb2:	701a      	strb	r2, [r3, #0]
 8000fb4:	e7ad      	b.n	8000f12 <ps2_clock_receive+0x4e>
						ps2int_state = PS2INT_SEND_ARGUMENT;
 8000fb6:	f240 4203 	movw	r2, #1027	; 0x403
					ps2int_state = PS2INT_SEND_COMMAND; //Resend BOTH command AND argument
 8000fba:	801a      	strh	r2, [r3, #0]
					send_start_bit_next(150);
 8000fbc:	2096      	movs	r0, #150	; 0x96
}
 8000fbe:	e8bd 40f8 	ldmia.w	sp!, {r3, r4, r5, r6, r7, lr}
					send_start_bit_next(150);
 8000fc2:	f7ff bee5 	b.w	8000d90 <send_start_bit_next>
				else if(data_word == 0xfe) //0xFE is Resend
 8000fc6:	2dfe      	cmp	r5, #254	; 0xfe
 8000fc8:	d102      	bne.n	8000fd0 <ps2_clock_receive+0x10c>
					ps2int_state = PS2INT_SEND_COMMAND; //Resend BOTH command AND argument
 8000fca:	f240 4201 	movw	r2, #1025	; 0x401
 8000fce:	e7f4      	b.n	8000fba <ps2_clock_receive+0xf6>
					ps2int_state = PS2INT_RECEIVE;
 8000fd0:	f44f 6280 	mov.w	r2, #1024	; 0x400
 8000fd4:	801a      	strh	r2, [r3, #0]
					fail_count++;
 8000fd6:	4a14      	ldr	r2, [pc, #80]	; (8001028 <ps2_clock_receive+0x164>)
					ps2int_RX_bit_idx = 0;//reset PS/2 receive condition
 8000fd8:	7027      	strb	r7, [r4, #0]
					fail_count++;
 8000fda:	8813      	ldrh	r3, [r2, #0]
 8000fdc:	3301      	adds	r3, #1
 8000fde:	8013      	strh	r3, [r2, #0]
 8000fe0:	e797      	b.n	8000f12 <ps2_clock_receive+0x4e>
			else if (ps2int_state == PS2INT_WAIT_FOR_ARGUMENT_ACK)
 8000fe2:	881a      	ldrh	r2, [r3, #0]
 8000fe4:	f240 4104 	movw	r1, #1028	; 0x404
 8000fe8:	b292      	uxth	r2, r2
 8000fea:	428a      	cmp	r2, r1
 8000fec:	d191      	bne.n	8000f12 <ps2_clock_receive+0x4e>
				if(data_word == KB_ACKNOWLEDGE) //Acknowledge from PS/2 keyboard
 8000fee:	2dfa      	cmp	r5, #250	; 0xfa
 8000ff0:	d0d9      	beq.n	8000fa6 <ps2_clock_receive+0xe2>
				else if(data_word == 0xfe) //0xFE is Resend
 8000ff2:	2dfe      	cmp	r5, #254	; 0xfe
 8000ff4:	d0e9      	beq.n	8000fca <ps2_clock_receive+0x106>
					ps2int_state = PS2INT_RECEIVE;
 8000ff6:	f44f 6280 	mov.w	r2, #1024	; 0x400
 8000ffa:	801a      	strh	r2, [r3, #0]
					ps2int_RX_bit_idx = 0;//reset PS/2 receive condition
 8000ffc:	7027      	strb	r7, [r4, #0]
 8000ffe:	e788      	b.n	8000f12 <ps2_clock_receive+0x4e>
			fail_count++;
 8001000:	4a09      	ldr	r2, [pc, #36]	; (8001028 <ps2_clock_receive+0x164>)
 8001002:	8813      	ldrh	r3, [r2, #0]
 8001004:	3301      	adds	r3, #1
 8001006:	8013      	strh	r3, [r2, #0]
			ps2int_RX_bit_idx = 0;
 8001008:	2300      	movs	r3, #0
 800100a:	e793      	b.n	8000f34 <ps2_clock_receive+0x70>
 800100c:	20000547 	andcs	r0, r0, r7, asr #10
 8001010:	20000790 	mulcs	r0, r0, r7
 8001014:	20000558 	andcs	r0, r0, r8, asr r5
 8001018:	200004fc 	strdcs	r0, [r0], -ip
 800101c:	40020400 	andmi	r0, r2, r0, lsl #8
 8001020:	200004f4 	strdcs	r0, [r0], -r4
 8001024:	200004f8 	strdcs	r0, [r0], -r8
 8001028:	20000552 	andcs	r0, r0, r2, asr r5
 800102c:	2000054a 	andcs	r0, r0, sl, asr #10
 8001030:	20000506 	andcs	r0, r0, r6, lsl #10
 8001034:	20000505 	andcs	r0, r0, r5, lsl #10
 8001038:	20000507 	andcs	r0, r0, r7, lsl #10
 800103c:	200004f1 	strdcs	r0, [r0], -r1
 8001040:	200004f3 	strdcs	r0, [r0], -r3

08001044 <ps2_clock_update>:
{
 8001044:	b5f8      	push	{r3, r4, r5, r6, r7, lr}
 8001046:	4a2a      	ldr	r2, [pc, #168]	; (80010f0 <ps2_clock_update+0xac>)
 8001048:	4e2a      	ldr	r6, [pc, #168]	; (80010f4 <ps2_clock_update+0xb0>)
 800104a:	4d2b      	ldr	r5, [pc, #172]	; (80010f8 <ps2_clock_update+0xb4>)
	if (!ps2datapin_logicstate && (ps2datapin_logicstate == formerps2datapin))
 800104c:	4604      	mov	r4, r0
 800104e:	2800      	cmp	r0, #0
 8001050:	d145      	bne.n	80010de <ps2_clock_update+0x9a>
 8001052:	7833      	ldrb	r3, [r6, #0]
 8001054:	2b00      	cmp	r3, #0
 8001056:	d142      	bne.n	80010de <ps2_clock_update+0x9a>
		acctimeps2data0 += time_between_ps2clk;
 8001058:	4f28      	ldr	r7, [pc, #160]	; (80010fc <ps2_clock_update+0xb8>)
 800105a:	e9d2 3100 	ldrd	r3, r1, [r2]
 800105e:	e9d7 0700 	ldrd	r0, r7, [r7]
 8001062:	181b      	adds	r3, r3, r0
 8001064:	eb41 0107 	adc.w	r1, r1, r7
 8001068:	e9c2 3100 	strd	r3, r1, [r2]
		if (acctimeps2data0 >= 200000) //.2s
 800106c:	4a24      	ldr	r2, [pc, #144]	; (8001100 <ps2_clock_update+0xbc>)
 800106e:	429a      	cmp	r2, r3
 8001070:	eb74 0301 	sbcs.w	r3, r4, r1
 8001074:	d208      	bcs.n	8001088 <ps2_clock_update+0x44>
			gpio_set(PS2_DATA_PIN_PORT, PS2_DATA_PIN_ID);
 8001076:	4823      	ldr	r0, [pc, #140]	; (8001104 <ps2_clock_update+0xc0>)
 8001078:	2120      	movs	r1, #32
 800107a:	f001 fa96 	bl	80025aa <gpio_set>
			ps2int_state = PS2INT_RECEIVE;
 800107e:	f44f 6380 	mov.w	r3, #1024	; 0x400
 8001082:	802b      	strh	r3, [r5, #0]
			ps2int_RX_bit_idx = 0;
 8001084:	4b20      	ldr	r3, [pc, #128]	; (8001108 <ps2_clock_update+0xc4>)
 8001086:	701c      	strb	r4, [r3, #0]
	formerps2datapin = ps2datapin_logicstate;	//To compare at next bit
 8001088:	7034      	strb	r4, [r6, #0]
	if( ((ps2int_state == PS2INT_SEND_COMMAND) || (ps2int_state == PS2INT_SEND_ARGUMENT))
 800108a:	882b      	ldrh	r3, [r5, #0]
 800108c:	f240 4201 	movw	r2, #1025	; 0x401
 8001090:	b29b      	uxth	r3, r3
 8001092:	4293      	cmp	r3, r2
 8001094:	d005      	beq.n	80010a2 <ps2_clock_update+0x5e>
 8001096:	882b      	ldrh	r3, [r5, #0]
 8001098:	f240 4203 	movw	r2, #1027	; 0x403
 800109c:	b29b      	uxth	r3, r3
 800109e:	4293      	cmp	r3, r2
 80010a0:	d10c      	bne.n	80010bc <ps2_clock_update+0x78>
				&& ((systicks - prev_systicks) > 1*3) )
 80010a2:	4b1a      	ldr	r3, [pc, #104]	; (800110c <ps2_clock_update+0xc8>)
 80010a4:	681a      	ldr	r2, [r3, #0]
 80010a6:	4b1a      	ldr	r3, [pc, #104]	; (8001110 <ps2_clock_update+0xcc>)
 80010a8:	681b      	ldr	r3, [r3, #0]
 80010aa:	1a9b      	subs	r3, r3, r2
 80010ac:	2b03      	cmp	r3, #3
 80010ae:	d905      	bls.n	80010bc <ps2_clock_update+0x78>
		ps2int_state = PS2INT_RECEIVE;
 80010b0:	f44f 6380 	mov.w	r3, #1024	; 0x400
 80010b4:	802b      	strh	r3, [r5, #0]
		ps2int_RX_bit_idx = 0;
 80010b6:	4b14      	ldr	r3, [pc, #80]	; (8001108 <ps2_clock_update+0xc4>)
 80010b8:	2200      	movs	r2, #0
 80010ba:	701a      	strb	r2, [r3, #0]
	if( (ps2int_state == PS2INT_SEND_COMMAND) || (ps2int_state == PS2INT_SEND_ARGUMENT) )
 80010bc:	882b      	ldrh	r3, [r5, #0]
 80010be:	f240 4201 	movw	r2, #1025	; 0x401
 80010c2:	b29b      	uxth	r3, r3
 80010c4:	4293      	cmp	r3, r2
		ps2_clock_send(ps2datapin_logicstate);
 80010c6:	4620      	mov	r0, r4
	if( (ps2int_state == PS2INT_SEND_COMMAND) || (ps2int_state == PS2INT_SEND_ARGUMENT) )
 80010c8:	d005      	beq.n	80010d6 <ps2_clock_update+0x92>
 80010ca:	882b      	ldrh	r3, [r5, #0]
 80010cc:	f240 4203 	movw	r2, #1027	; 0x403
 80010d0:	b29b      	uxth	r3, r3
 80010d2:	4293      	cmp	r3, r2
 80010d4:	d108      	bne.n	80010e8 <ps2_clock_update+0xa4>
}
 80010d6:	e8bd 40f8 	ldmia.w	sp!, {r3, r4, r5, r6, r7, lr}
		ps2_clock_send(ps2datapin_logicstate);
 80010da:	f7ff be5f 	b.w	8000d9c <ps2_clock_send>
		acctimeps2data0 = 0;		//Reset acc time counter
 80010de:	2000      	movs	r0, #0
 80010e0:	2100      	movs	r1, #0
 80010e2:	e9c2 0100 	strd	r0, r1, [r2]
 80010e6:	e7cf      	b.n	8001088 <ps2_clock_update+0x44>
}
 80010e8:	e8bd 40f8 	ldmia.w	sp!, {r3, r4, r5, r6, r7, lr}
		ps2_clock_receive(ps2datapin_logicstate);
 80010ec:	f7ff beea 	b.w	8000ec4 <ps2_clock_receive>
 80010f0:	20000780 	andcs	r0, r0, r0, lsl #15
 80010f4:	200004f5 	strdcs	r0, [r0], -r5
 80010f8:	2000054a 	andcs	r0, r0, sl, asr #10
 80010fc:	20000790 	mulcs	r0, r0, r7
 8001100:	00030d3f 	andeq	r0, r3, pc, lsr sp
 8001104:	40020400 	andmi	r0, r2, r0, lsl #8
 8001108:	20000547 	andcs	r0, r0, r7, asr #10
 800110c:	200004fc 	strdcs	r0, [r0], -ip
 8001110:	20000558 	andcs	r0, r0, r8, asr r5

08001114 <ps2_send_command>:


void ps2_send_command(uint8_t cmd, uint8_t argm)
{
	command =  cmd;
 8001114:	4b04      	ldr	r3, [pc, #16]	; (8001128 <ps2_send_command+0x14>)
 8001116:	7018      	strb	r0, [r3, #0]
	argument = argm;
 8001118:	4b04      	ldr	r3, [pc, #16]	; (800112c <ps2_send_command+0x18>)
 800111a:	7019      	strb	r1, [r3, #0]
	ps2int_state = PS2INT_SEND_COMMAND;
 800111c:	4b04      	ldr	r3, [pc, #16]	; (8001130 <ps2_send_command+0x1c>)
 800111e:	f240 4201 	movw	r2, #1025	; 0x401
 8001122:	801a      	strh	r2, [r3, #0]
	send_start_bit_now();
 8001124:	f7ff bd46 	b.w	8000bb4 <send_start_bit_now>
 8001128:	200004f2 	strdcs	r0, [r0], -r2
 800112c:	200004f1 	strdcs	r0, [r0], -r1
 8001130:	2000054a 	andcs	r0, r0, sl, asr #10

08001134 <ps2_keyb_detect>:
{
 8001134:	e92d 41ff 	stmdb	sp!, {r0, r1, r2, r3, r4, r5, r6, r7, r8, lr}
	systicks_start_command = systicks;
 8001138:	4c49      	ldr	r4, [pc, #292]	; (8001260 <ps2_keyb_detect+0x12c>)
	ps2_keyb_detected = false;
 800113a:	4e4a      	ldr	r6, [pc, #296]	; (8001264 <ps2_keyb_detect+0x130>)
	usart_send_string((uint8_t*)"- PS/2 Port. \n\rWaiting up to 2.5s with the keyboard powered up to complete BAT...\n");
 800113c:	484a      	ldr	r0, [pc, #296]	; (8001268 <ps2_keyb_detect+0x134>)
	systicks_start_command = systicks;
 800113e:	6825      	ldr	r5, [r4, #0]
	ps2_keyb_detected = false;
 8001140:	2300      	movs	r3, #0
 8001142:	7033      	strb	r3, [r6, #0]
	usart_send_string((uint8_t*)"- PS/2 Port. \n\rWaiting up to 2.5s with the keyboard powered up to complete BAT...\n");
 8001144:	f000 fdf1 	bl	8001d2a <usart_send_string>
		prev_systicks = systicks;	//To avoid errors on keyboard power up BEFORE the first access
 8001148:	4948      	ldr	r1, [pc, #288]	; (800126c <ps2_keyb_detect+0x138>)
	while ( ((systicks-systicks_start_command) < (25*3)) && (!available_ps2_byte()) )	//Wait 2500ms for keyboard power on
 800114a:	6823      	ldr	r3, [r4, #0]
 800114c:	1b5b      	subs	r3, r3, r5
 800114e:	2b4a      	cmp	r3, #74	; 0x4a
 8001150:	d94a      	bls.n	80011e8 <ps2_keyb_detect+0xb4>
	ps2_byte_received = get_ps2_byte(&ps2_recv_buffer[0]);
 8001152:	4847      	ldr	r0, [pc, #284]	; (8001270 <ps2_keyb_detect+0x13c>)
 8001154:	4d47      	ldr	r5, [pc, #284]	; (8001274 <ps2_keyb_detect+0x140>)
 8001156:	f7ff fe05 	bl	8000d64 <get_ps2_byte>
 800115a:	7028      	strb	r0, [r5, #0]
	if(ps2_byte_received != 0)
 800115c:	782b      	ldrb	r3, [r5, #0]
 800115e:	2b00      	cmp	r3, #0
 8001160:	d149      	bne.n	80011f6 <ps2_keyb_detect+0xc2>
	ps2_send_command(COMM_READ_ID, ARG_NO_ARG); //Read ID command.
 8001162:	21ff      	movs	r1, #255	; 0xff
 8001164:	20f2      	movs	r0, #242	; 0xf2
	systicks_start_command = systicks;
 8001166:	f8d4 8000 	ldr.w	r8, [r4]
	while (!command_ok && (systicks - systicks_start_command)<(3*3)) //Must be excecuted in less than 100ms
 800116a:	4f43      	ldr	r7, [pc, #268]	; (8001278 <ps2_keyb_detect+0x144>)
	ps2_send_command(COMM_READ_ID, ARG_NO_ARG); //Read ID command.
 800116c:	f7ff ffd2 	bl	8001114 <ps2_send_command>
	while (!command_ok && (systicks - systicks_start_command)<(3*3)) //Must be excecuted in less than 100ms
 8001170:	783b      	ldrb	r3, [r7, #0]
 8001172:	b923      	cbnz	r3, 800117e <ps2_keyb_detect+0x4a>
 8001174:	6823      	ldr	r3, [r4, #0]
 8001176:	eba3 0308 	sub.w	r3, r3, r8
 800117a:	2b08      	cmp	r3, #8
 800117c:	d94e      	bls.n	800121c <ps2_keyb_detect+0xe8>
	if (command_ok)
 800117e:	783b      	ldrb	r3, [r7, #0]
 8001180:	2b00      	cmp	r3, #0
 8001182:	d054      	beq.n	800122e <ps2_keyb_detect+0xfa>
		systicks_start_command = systicks;
 8001184:	6821      	ldr	r1, [r4, #0]
		while(!available_ps2_byte()&& (systicks - systicks_start_command)<(1*3))
 8001186:	f7ff fde1 	bl	8000d4c <available_ps2_byte>
 800118a:	b918      	cbnz	r0, 8001194 <ps2_keyb_detect+0x60>
 800118c:	6823      	ldr	r3, [r4, #0]
 800118e:	1a5b      	subs	r3, r3, r1
 8001190:	2b02      	cmp	r3, #2
 8001192:	d945      	bls.n	8001220 <ps2_keyb_detect+0xec>
		ps2_byte_received = get_ps2_byte(&ps2_recv_buffer[0]);
 8001194:	4836      	ldr	r0, [pc, #216]	; (8001270 <ps2_keyb_detect+0x13c>)
 8001196:	f7ff fde5 	bl	8000d64 <get_ps2_byte>
 800119a:	7028      	strb	r0, [r5, #0]
		if(ps2_byte_received == KB_FIRST_ID)
 800119c:	782b      	ldrb	r3, [r5, #0]
 800119e:	2bab      	cmp	r3, #171	; 0xab
 80011a0:	d145      	bne.n	800122e <ps2_keyb_detect+0xfa>
			systicks_start_command = systicks;
 80011a2:	6821      	ldr	r1, [r4, #0]
			while(!available_ps2_byte() && (systicks - systicks_start_command)<(1*3))
 80011a4:	f7ff fdd2 	bl	8000d4c <available_ps2_byte>
 80011a8:	b918      	cbnz	r0, 80011b2 <ps2_keyb_detect+0x7e>
 80011aa:	6823      	ldr	r3, [r4, #0]
 80011ac:	1a5b      	subs	r3, r3, r1
 80011ae:	2b02      	cmp	r3, #2
 80011b0:	d938      	bls.n	8001224 <ps2_keyb_detect+0xf0>
			ps2_byte_received = get_ps2_byte(&ps2_recv_buffer[0]);
 80011b2:	482f      	ldr	r0, [pc, #188]	; (8001270 <ps2_keyb_detect+0x13c>)
 80011b4:	f7ff fdd6 	bl	8000d64 <get_ps2_byte>
 80011b8:	7028      	strb	r0, [r5, #0]
			if(ps2_byte_received == KB_SECOND_ID)
 80011ba:	782b      	ldrb	r3, [r5, #0]
 80011bc:	2b83      	cmp	r3, #131	; 0x83
 80011be:	d133      	bne.n	8001228 <ps2_keyb_detect+0xf4>
				usart_send_string((uint8_t*)"PS/2 Keyboard detected\n");
 80011c0:	482e      	ldr	r0, [pc, #184]	; (800127c <ps2_keyb_detect+0x148>)
				ps2_keyb_detected = true;
 80011c2:	2301      	movs	r3, #1
 80011c4:	7033      	strb	r3, [r6, #0]
				usart_send_string((uint8_t*)"PS/2 Keyboard detected\n");
 80011c6:	f000 fdb0 	bl	8001d2a <usart_send_string>
	ps2_send_command(COMM_SET_TYPEMATIC_RATEDELAY, ARG_LOWRATE_LOWDELAY);
 80011ca:	217f      	movs	r1, #127	; 0x7f
 80011cc:	20f3      	movs	r0, #243	; 0xf3
	systicks_start_command = systicks;
 80011ce:	6825      	ldr	r5, [r4, #0]
	ps2_send_command(COMM_SET_TYPEMATIC_RATEDELAY, ARG_LOWRATE_LOWDELAY);
 80011d0:	f7ff ffa0 	bl	8001114 <ps2_send_command>
	while (!command_ok && (systicks - systicks_start_command)<(1*3)) //Must be excecuted in less than 100ms
 80011d4:	783b      	ldrb	r3, [r7, #0]
 80011d6:	b91b      	cbnz	r3, 80011e0 <ps2_keyb_detect+0xac>
 80011d8:	6823      	ldr	r3, [r4, #0]
 80011da:	1b5b      	subs	r3, r3, r5
 80011dc:	2b02      	cmp	r3, #2
 80011de:	d92b      	bls.n	8001238 <ps2_keyb_detect+0x104>
	if (command_ok)
 80011e0:	783b      	ldrb	r3, [r7, #0]
 80011e2:	b35b      	cbz	r3, 800123c <ps2_keyb_detect+0x108>
		usart_send_string((uint8_t*)"Type 2 (Delay 1 second to repeat. 2cps repeat rate) OK\n");
 80011e4:	4826      	ldr	r0, [pc, #152]	; (8001280 <ps2_keyb_detect+0x14c>)
 80011e6:	e020      	b.n	800122a <ps2_keyb_detect+0xf6>
	while ( ((systicks-systicks_start_command) < (25*3)) && (!available_ps2_byte()) )	//Wait 2500ms for keyboard power on
 80011e8:	f7ff fdb0 	bl	8000d4c <available_ps2_byte>
 80011ec:	2800      	cmp	r0, #0
 80011ee:	d1b0      	bne.n	8001152 <ps2_keyb_detect+0x1e>
		prev_systicks = systicks;	//To avoid errors on keyboard power up BEFORE the first access
 80011f0:	6823      	ldr	r3, [r4, #0]
 80011f2:	600b      	str	r3, [r1, #0]
 80011f4:	e7a9      	b.n	800114a <ps2_keyb_detect+0x16>
		if(ps2_byte_received == KB_SUCCESSFULL_BAT)
 80011f6:	782b      	ldrb	r3, [r5, #0]
 80011f8:	2baa      	cmp	r3, #170	; 0xaa
 80011fa:	d103      	bne.n	8001204 <ps2_keyb_detect+0xd0>
			usart_send_string((uint8_t*)"BAT OK\r\n");
 80011fc:	4821      	ldr	r0, [pc, #132]	; (8001284 <ps2_keyb_detect+0x150>)
			usart_send_string((uint8_t*)"\r\n");
 80011fe:	f000 fd94 	bl	8001d2a <usart_send_string>
 8001202:	e7ae      	b.n	8001162 <ps2_keyb_detect+0x2e>
			usart_send_string((uint8_t*)"Received 0x");
 8001204:	4820      	ldr	r0, [pc, #128]	; (8001288 <ps2_keyb_detect+0x154>)
 8001206:	f000 fd90 	bl	8001d2a <usart_send_string>
			conv_uint8_to_2a_hex(ps2_byte_received, &mountstring[0]);
 800120a:	7828      	ldrb	r0, [r5, #0]
 800120c:	4669      	mov	r1, sp
 800120e:	f000 fdc7 	bl	8001da0 <conv_uint8_to_2a_hex>
			usart_send_string((uint8_t*)&mountstring[0]);
 8001212:	4668      	mov	r0, sp
 8001214:	f000 fd89 	bl	8001d2a <usart_send_string>
			usart_send_string((uint8_t*)"\r\n");
 8001218:	481c      	ldr	r0, [pc, #112]	; (800128c <ps2_keyb_detect+0x158>)
 800121a:	e7f0      	b.n	80011fe <ps2_keyb_detect+0xca>
    __asm("nop");
 800121c:	bf00      	nop
 800121e:	e7a7      	b.n	8001170 <ps2_keyb_detect+0x3c>
    __asm("nop");
 8001220:	bf00      	nop
 8001222:	e7b0      	b.n	8001186 <ps2_keyb_detect+0x52>
			__asm("nop");
 8001224:	bf00      	nop
 8001226:	e7bd      	b.n	80011a4 <ps2_keyb_detect+0x70>
				usart_send_string((uint8_t*)"PS/2 Keyboard not detected! => ");
 8001228:	4819      	ldr	r0, [pc, #100]	; (8001290 <ps2_keyb_detect+0x15c>)
			usart_send_string((uint8_t*)"Type 3 Disables typematic 0xFA repeat OK\n");
 800122a:	f000 fd7e 	bl	8001d2a <usart_send_string>
	return ps2_keyb_detected;
 800122e:	7830      	ldrb	r0, [r6, #0]
 8001230:	b2c0      	uxtb	r0, r0
}
 8001232:	b004      	add	sp, #16
 8001234:	e8bd 81f0 	ldmia.w	sp!, {r4, r5, r6, r7, r8, pc}
		__asm("nop");
 8001238:	bf00      	nop
 800123a:	e7cb      	b.n	80011d4 <ps2_keyb_detect+0xa0>
		ps2_send_command(COMM_TYPE3_NO_REPEAT, ARG_NO_ARG);
 800123c:	21ff      	movs	r1, #255	; 0xff
 800123e:	20f8      	movs	r0, #248	; 0xf8
		systicks_start_command = systicks;
 8001240:	6825      	ldr	r5, [r4, #0]
		ps2_send_command(COMM_TYPE3_NO_REPEAT, ARG_NO_ARG);
 8001242:	f7ff ff67 	bl	8001114 <ps2_send_command>
		while (!command_ok && (systicks - systicks_start_command)<(1*3)) //Must be excecuted in less than 100ms
 8001246:	783b      	ldrb	r3, [r7, #0]
 8001248:	b91b      	cbnz	r3, 8001252 <ps2_keyb_detect+0x11e>
 800124a:	6823      	ldr	r3, [r4, #0]
 800124c:	1b5b      	subs	r3, r3, r5
 800124e:	2b02      	cmp	r3, #2
 8001250:	d904      	bls.n	800125c <ps2_keyb_detect+0x128>
		if (command_ok)
 8001252:	783b      	ldrb	r3, [r7, #0]
 8001254:	2b00      	cmp	r3, #0
 8001256:	d0ea      	beq.n	800122e <ps2_keyb_detect+0xfa>
			usart_send_string((uint8_t*)"Type 3 Disables typematic 0xFA repeat OK\n");
 8001258:	480e      	ldr	r0, [pc, #56]	; (8001294 <ps2_keyb_detect+0x160>)
 800125a:	e7e6      	b.n	800122a <ps2_keyb_detect+0xf6>
			__asm("nop");
 800125c:	bf00      	nop
 800125e:	e7f2      	b.n	8001246 <ps2_keyb_detect+0x112>
 8001260:	20000558 	andcs	r0, r0, r8, asr r5
 8001264:	20000501 	andcs	r0, r0, r1, lsl #10
 8001268:	08003ef2 	stmdaeq	r0, {r1, r4, r5, r6, r7, r9, sl, fp, ip, sp}
 800126c:	200004fc 	strdcs	r0, [r0], -ip
 8001270:	20000507 	andcs	r0, r0, r7, lsl #10
 8001274:	20000500 	andcs	r0, r0, r0, lsl #10
 8001278:	200004f3 	strdcs	r0, [r0], -r3
 800127c:	08003f5a 	stmdaeq	r0, {r1, r3, r4, r6, r8, r9, sl, fp, ip, sp}
 8001280:	08003f92 	stmdaeq	r0, {r1, r4, r7, r8, r9, sl, fp, ip, sp}
 8001284:	08003f45 	stmdaeq	r0, {r0, r2, r6, r8, r9, sl, fp, ip, sp}
 8001288:	08003f4e 	stmdaeq	r0, {r1, r2, r3, r6, r8, r9, sl, fp, ip, sp}
 800128c:	080041bd 	stmdaeq	r0, {r0, r2, r3, r4, r5, r7, r8, lr}
 8001290:	08003f72 	stmdaeq	r0, {r1, r4, r5, r6, r8, r9, sl, fp, ip, sp}
 8001294:	08003fca 	stmdaeq	r0, {r1, r3, r6, r7, r8, r9, sl, fp, ip, sp}

08001298 <ps2_update_leds>:
}


void ps2_update_leds(bool num, bool caps, bool scroll)
{
	command = 0xED;
 8001298:	4b09      	ldr	r3, [pc, #36]	; (80012c0 <ps2_update_leds+0x28>)
{
 800129a:	b410      	push	{r4}
	argument = (scroll<<0)|(num<<1)|(caps<<2);
 800129c:	ea42 0181 	orr.w	r1, r2, r1, lsl #2
	command = 0xED;
 80012a0:	24ed      	movs	r4, #237	; 0xed
 80012a2:	701c      	strb	r4, [r3, #0]
	argument = (scroll<<0)|(num<<1)|(caps<<2);
 80012a4:	ea41 0040 	orr.w	r0, r1, r0, lsl #1
 80012a8:	4b06      	ldr	r3, [pc, #24]	; (80012c4 <ps2_update_leds+0x2c>)
 80012aa:	b2c0      	uxtb	r0, r0
 80012ac:	7018      	strb	r0, [r3, #0]
	ps2int_state = PS2INT_SEND_COMMAND;
 80012ae:	4b06      	ldr	r3, [pc, #24]	; (80012c8 <ps2_update_leds+0x30>)
	send_start_bit_now();
}
 80012b0:	f85d 4b04 	ldr.w	r4, [sp], #4
	ps2int_state = PS2INT_SEND_COMMAND;
 80012b4:	f240 4201 	movw	r2, #1025	; 0x401
 80012b8:	801a      	strh	r2, [r3, #0]
	send_start_bit_now();
 80012ba:	f7ff bc7b 	b.w	8000bb4 <send_start_bit_now>
 80012be:	bf00      	nop
 80012c0:	200004f2 	strdcs	r0, [r0], -r2
 80012c4:	200004f1 	strdcs	r0, [r0], -r1
 80012c8:	2000054a 	andcs	r0, r0, sl, asr #10

080012cc <reset_mount_scancode_machine>:


void reset_mount_scancode_machine()
{
	mount_scancode_count_status = 0;
 80012cc:	4a04      	ldr	r2, [pc, #16]	; (80012e0 <reset_mount_scancode_machine+0x14>)
 80012ce:	2300      	movs	r3, #0
 80012d0:	7013      	strb	r3, [r2, #0]
	ps2_keystr_e0 = false;
 80012d2:	4a04      	ldr	r2, [pc, #16]	; (80012e4 <reset_mount_scancode_machine+0x18>)
 80012d4:	7013      	strb	r3, [r2, #0]
	ps2_keystr_e1 = false;
 80012d6:	4a04      	ldr	r2, [pc, #16]	; (80012e8 <reset_mount_scancode_machine+0x1c>)
 80012d8:	7013      	strb	r3, [r2, #0]
	ps2_keystr_f0 = false;
 80012da:	4a04      	ldr	r2, [pc, #16]	; (80012ec <reset_mount_scancode_machine+0x20>)
 80012dc:	7013      	strb	r3, [r2, #0]
}
 80012de:	4770      	bx	lr
 80012e0:	200004f7 	strdcs	r0, [r0], -r7
 80012e4:	20000502 	andcs	r0, r0, r2, lsl #10
 80012e8:	20000503 	andcs	r0, r0, r3, lsl #10
 80012ec:	20000504 	andcs	r0, r0, r4, lsl #10

080012f0 <mount_scancode>:


bool mount_scancode()
{
 80012f0:	b5f8      	push	{r3, r4, r5, r6, r7, lr}
	// static uint16_t prev_state_index=0;
	if (!mount_scancode_OK)
 80012f2:	4e4b      	ldr	r6, [pc, #300]	; (8001420 <mount_scancode+0x130>)
 80012f4:	7833      	ldrb	r3, [r6, #0]
 80012f6:	b93b      	cbnz	r3, 8001308 <mount_scancode+0x18>
	{	
		while(available_ps2_byte() && !mount_scancode_OK)
		{
			ps2_byte_received = get_ps2_byte(&ps2_recv_buffer[0]);
 80012f8:	4f4a      	ldr	r7, [pc, #296]	; (8001424 <mount_scancode+0x134>)
 80012fa:	4c4b      	ldr	r4, [pc, #300]	; (8001428 <mount_scancode+0x138>)
		while(available_ps2_byte() && !mount_scancode_OK)
 80012fc:	f7ff fd26 	bl	8000d4c <available_ps2_byte>
 8001300:	4605      	mov	r5, r0
 8001302:	b108      	cbz	r0, 8001308 <mount_scancode+0x18>
 8001304:	7833      	ldrb	r3, [r6, #0]
 8001306:	b113      	cbz	r3, 800130e <mount_scancode+0x1e>
				break;
			}	//switch (mount_scancode_count_status)
		} //while((ps2_byte_received=get_ps2_byte(&ps2_recv_buffer[0]))!=0 && !mount_scancode_OK)
		return false;
	}//if (!mount_scancode_OK)
	return false;
 8001308:	2500      	movs	r5, #0
}
 800130a:	4628      	mov	r0, r5
 800130c:	bdf8      	pop	{r3, r4, r5, r6, r7, pc}
			ps2_byte_received = get_ps2_byte(&ps2_recv_buffer[0]);
 800130e:	4638      	mov	r0, r7
 8001310:	f7ff fd28 	bl	8000d64 <get_ps2_byte>
			switch (mount_scancode_count_status)
 8001314:	4b45      	ldr	r3, [pc, #276]	; (800142c <mount_scancode+0x13c>)
			ps2_byte_received = get_ps2_byte(&ps2_recv_buffer[0]);
 8001316:	7020      	strb	r0, [r4, #0]
			switch (mount_scancode_count_status)
 8001318:	781a      	ldrb	r2, [r3, #0]
 800131a:	2a07      	cmp	r2, #7
 800131c:	d8ee      	bhi.n	80012fc <mount_scancode+0xc>
 800131e:	e8df f002 	tbb	[pc, r2]
 8001322:	644e2a04 	strbvs	r2, [lr], #-2564	; 0xfffff5fc
 8001326:	3a78716a 	bcc	9e1d8d6 <__exidx_end+0x1e19396>
				if((ps2_byte_received > 0) && (ps2_byte_received < 0xE0)) //Se at 0xDF cai aqui
 800132a:	7822      	ldrb	r2, [r4, #0]
 800132c:	b15a      	cbz	r2, 8001346 <mount_scancode+0x56>
 800132e:	7822      	ldrb	r2, [r4, #0]
 8001330:	2adf      	cmp	r2, #223	; 0xdf
 8001332:	d808      	bhi.n	8001346 <mount_scancode+0x56>
					scancode[1] = ps2_byte_received;
 8001334:	4a3e      	ldr	r2, [pc, #248]	; (8001430 <mount_scancode+0x140>)
 8001336:	7823      	ldrb	r3, [r4, #0]
 8001338:	7053      	strb	r3, [r2, #1]
					scancode[0] = 1;
 800133a:	2301      	movs	r3, #1
 800133c:	7013      	strb	r3, [r2, #0]
							mount_scancode_OK = true;
 800133e:	7033      	strb	r3, [r6, #0]
							reset_mount_scancode_machine();
 8001340:	f7ff ffc4 	bl	80012cc <reset_mount_scancode_machine>
							return true;
 8001344:	e7e1      	b.n	800130a <mount_scancode+0x1a>
				if(ps2_byte_received == 0xE0)
 8001346:	7822      	ldrb	r2, [r4, #0]
 8001348:	2ae0      	cmp	r2, #224	; 0xe0
 800134a:	d108      	bne.n	800135e <mount_scancode+0x6e>
					ps2_keystr_e0 = true;
 800134c:	4939      	ldr	r1, [pc, #228]	; (8001434 <mount_scancode+0x144>)
 800134e:	2201      	movs	r2, #1
					ps2_keystr_e1 = true;
 8001350:	700a      	strb	r2, [r1, #0]
					scancode[1] = ps2_byte_received;
 8001352:	4937      	ldr	r1, [pc, #220]	; (8001430 <mount_scancode+0x140>)
 8001354:	7820      	ldrb	r0, [r4, #0]
 8001356:	7048      	strb	r0, [r1, #1]
					scancode[0] = 1;
 8001358:	700a      	strb	r2, [r1, #0]
						mount_scancode_count_status = 7; //points to next case
 800135a:	701a      	strb	r2, [r3, #0]
						break;
 800135c:	e7ce      	b.n	80012fc <mount_scancode+0xc>
				if(ps2_byte_received == 0xE1)
 800135e:	7822      	ldrb	r2, [r4, #0]
 8001360:	2ae1      	cmp	r2, #225	; 0xe1
 8001362:	d102      	bne.n	800136a <mount_scancode+0x7a>
					ps2_keystr_e1 = true;
 8001364:	4934      	ldr	r1, [pc, #208]	; (8001438 <mount_scancode+0x148>)
 8001366:	2201      	movs	r2, #1
 8001368:	e7f2      	b.n	8001350 <mount_scancode+0x60>
				if(ps2_byte_received == 0xF0)
 800136a:	7822      	ldrb	r2, [r4, #0]
 800136c:	2af0      	cmp	r2, #240	; 0xf0
 800136e:	d1c5      	bne.n	80012fc <mount_scancode+0xc>
					ps2_keystr_f0 = true;
 8001370:	4932      	ldr	r1, [pc, #200]	; (800143c <mount_scancode+0x14c>)
 8001372:	2201      	movs	r2, #1
 8001374:	e7ec      	b.n	8001350 <mount_scancode+0x60>
				if (ps2_keystr_e0 == true)
 8001376:	4a2f      	ldr	r2, [pc, #188]	; (8001434 <mount_scancode+0x144>)
 8001378:	7812      	ldrb	r2, [r2, #0]
 800137a:	f002 05ff 	and.w	r5, r2, #255	; 0xff
 800137e:	b17a      	cbz	r2, 80013a0 <mount_scancode+0xb0>
					if(ps2_byte_received != 0xF0)
 8001380:	7822      	ldrb	r2, [r4, #0]
 8001382:	2af0      	cmp	r2, #240	; 0xf0
 8001384:	d00f      	beq.n	80013a6 <mount_scancode+0xb6>
						if(ps2_byte_received != 0x12)
 8001386:	7823      	ldrb	r3, [r4, #0]
 8001388:	2b12      	cmp	r3, #18
 800138a:	d006      	beq.n	800139a <mount_scancode+0xaa>
							scancode[2] = ps2_byte_received;
 800138c:	4b28      	ldr	r3, [pc, #160]	; (8001430 <mount_scancode+0x140>)
 800138e:	7822      	ldrb	r2, [r4, #0]
 8001390:	709a      	strb	r2, [r3, #2]
							scancode[0] = 2;
 8001392:	2202      	movs	r2, #2
 8001394:	701a      	strb	r2, [r3, #0]
							mount_scancode_OK = true;
 8001396:	2301      	movs	r3, #1
 8001398:	e7d1      	b.n	800133e <mount_scancode+0x4e>
							reset_mount_scancode_machine();
 800139a:	f7ff ff97 	bl	80012cc <reset_mount_scancode_machine>
							break;
 800139e:	e7ad      	b.n	80012fc <mount_scancode+0xc>
				if (ps2_keystr_e1)  //Break key (8 bytes)
 80013a0:	4a25      	ldr	r2, [pc, #148]	; (8001438 <mount_scancode+0x148>)
 80013a2:	7812      	ldrb	r2, [r2, #0]
 80013a4:	b122      	cbz	r2, 80013b0 <mount_scancode+0xc0>
					scancode[2] = ps2_byte_received;
 80013a6:	4922      	ldr	r1, [pc, #136]	; (8001430 <mount_scancode+0x140>)
 80013a8:	7822      	ldrb	r2, [r4, #0]
 80013aa:	708a      	strb	r2, [r1, #2]
					scancode[0] = 2;
 80013ac:	2202      	movs	r2, #2
 80013ae:	e7d3      	b.n	8001358 <mount_scancode+0x68>
				if (ps2_keystr_f0 == true)
 80013b0:	4b22      	ldr	r3, [pc, #136]	; (800143c <mount_scancode+0x14c>)
 80013b2:	781b      	ldrb	r3, [r3, #0]
 80013b4:	f003 05ff 	and.w	r5, r3, #255	; 0xff
 80013b8:	2b00      	cmp	r3, #0
 80013ba:	d09f      	beq.n	80012fc <mount_scancode+0xc>
 80013bc:	e7e6      	b.n	800138c <mount_scancode+0x9c>
				if (ps2_keystr_e0 == true)
 80013be:	4a1d      	ldr	r2, [pc, #116]	; (8001434 <mount_scancode+0x144>)
 80013c0:	7812      	ldrb	r2, [r2, #0]
 80013c2:	f002 05ff 	and.w	r5, r2, #255	; 0xff
 80013c6:	b13a      	cbz	r2, 80013d8 <mount_scancode+0xe8>
					if(ps2_byte_received != 0x12)
 80013c8:	7823      	ldrb	r3, [r4, #0]
 80013ca:	2b12      	cmp	r3, #18
 80013cc:	d0e5      	beq.n	800139a <mount_scancode+0xaa>
						scancode[3] = ps2_byte_received;
 80013ce:	4b18      	ldr	r3, [pc, #96]	; (8001430 <mount_scancode+0x140>)
 80013d0:	7822      	ldrb	r2, [r4, #0]
 80013d2:	70da      	strb	r2, [r3, #3]
						scancode[0] = 3;
 80013d4:	2203      	movs	r2, #3
 80013d6:	e7dd      	b.n	8001394 <mount_scancode+0xa4>
				else if (ps2_keystr_e1 == true)  //Break key (8 bytes)
 80013d8:	4a17      	ldr	r2, [pc, #92]	; (8001438 <mount_scancode+0x148>)
 80013da:	7812      	ldrb	r2, [r2, #0]
 80013dc:	2a00      	cmp	r2, #0
 80013de:	d08d      	beq.n	80012fc <mount_scancode+0xc>
					scancode[3] = ps2_byte_received;
 80013e0:	4913      	ldr	r1, [pc, #76]	; (8001430 <mount_scancode+0x140>)
 80013e2:	7822      	ldrb	r2, [r4, #0]
 80013e4:	70ca      	strb	r2, [r1, #3]
					scancode[0] = 3;
 80013e6:	2203      	movs	r2, #3
 80013e8:	e7b6      	b.n	8001358 <mount_scancode+0x68>
				if (ps2_keystr_e1 == true)  //Break key (8 bytes)
 80013ea:	4a13      	ldr	r2, [pc, #76]	; (8001438 <mount_scancode+0x148>)
 80013ec:	7812      	ldrb	r2, [r2, #0]
 80013ee:	2a00      	cmp	r2, #0
 80013f0:	d084      	beq.n	80012fc <mount_scancode+0xc>
					mount_scancode_count_status = 4; //points to next case
 80013f2:	2204      	movs	r2, #4
 80013f4:	e7b1      	b.n	800135a <mount_scancode+0x6a>
				if (ps2_keystr_e1 == true)  //Break key (8 bytes)
 80013f6:	4a10      	ldr	r2, [pc, #64]	; (8001438 <mount_scancode+0x148>)
 80013f8:	7812      	ldrb	r2, [r2, #0]
 80013fa:	2a00      	cmp	r2, #0
 80013fc:	f43f af7e 	beq.w	80012fc <mount_scancode+0xc>
					mount_scancode_count_status = 5; //points to next case
 8001400:	2205      	movs	r2, #5
 8001402:	e7aa      	b.n	800135a <mount_scancode+0x6a>
				if (ps2_keystr_e1 == true)  //Break key (8 bytes)
 8001404:	4a0c      	ldr	r2, [pc, #48]	; (8001438 <mount_scancode+0x148>)
 8001406:	7812      	ldrb	r2, [r2, #0]
 8001408:	2a00      	cmp	r2, #0
 800140a:	f43f af77 	beq.w	80012fc <mount_scancode+0xc>
					mount_scancode_count_status = 6; //points to next case
 800140e:	2206      	movs	r2, #6
 8001410:	e7a3      	b.n	800135a <mount_scancode+0x6a>
				if (ps2_keystr_e1 == true)  //Break key (8 bytes)
 8001412:	4a09      	ldr	r2, [pc, #36]	; (8001438 <mount_scancode+0x148>)
 8001414:	7812      	ldrb	r2, [r2, #0]
 8001416:	2a00      	cmp	r2, #0
 8001418:	f43f af70 	beq.w	80012fc <mount_scancode+0xc>
						mount_scancode_count_status = 7; //points to next case
 800141c:	2207      	movs	r2, #7
 800141e:	e79c      	b.n	800135a <mount_scancode+0x6a>
 8001420:	200004f6 	strdcs	r0, [r0], -r6
 8001424:	20000507 	andcs	r0, r0, r7, lsl #10
 8001428:	20000500 	andcs	r0, r0, r0, lsl #10
 800142c:	200004f7 	strdcs	r0, [r0], -r7
 8001430:	200004a8 	andcs	r0, r0, r8, lsr #9
 8001434:	20000502 	andcs	r0, r0, r2, lsl #10
 8001438:	20000503 	andcs	r0, r0, r3, lsl #10
 800143c:	20000504 	andcs	r0, r0, r4, lsl #10

08001440 <general_debug_setup>:


void general_debug_setup(void)
{
 8001440:	b510      	push	{r4, lr}
	gpio_mode_setup(SYSTICK_port, GPIO_MODE_OUTPUT, GPIO_PUPD_NONE, SYSTICK_pin_id);
 8001442:	4c33      	ldr	r4, [pc, #204]	; (8001510 <general_debug_setup+0xd0>)
 8001444:	2301      	movs	r3, #1
 8001446:	4619      	mov	r1, r3
 8001448:	4620      	mov	r0, r4
 800144a:	2200      	movs	r2, #0
 800144c:	f001 f8c9 	bl	80025e2 <gpio_mode_setup>
	gpio_set_output_options(SYSTICK_port, GPIO_OTYPE_PP, GPIO_OSPEED_100MHZ, SYSTICK_pin_id);
 8001450:	2301      	movs	r3, #1
 8001452:	2203      	movs	r2, #3
 8001454:	4620      	mov	r0, r4
 8001456:	2100      	movs	r1, #0
 8001458:	f001 f8e3 	bl	8002622 <gpio_set_output_options>
	gpio_set(SYSTICK_port, SYSTICK_pin_id); //Default condition is "1"
 800145c:	4620      	mov	r0, r4
 800145e:	2101      	movs	r1, #1
 8001460:	f001 f8a3 	bl	80025aa <gpio_set>

	gpio_mode_setup(BIT0_PIN_PORT, GPIO_MODE_OUTPUT, GPIO_PUPD_NONE, BIT0_PIN_ID);
 8001464:	4620      	mov	r0, r4
 8001466:	2302      	movs	r3, #2
 8001468:	2200      	movs	r2, #0
 800146a:	2101      	movs	r1, #1
 800146c:	f001 f8b9 	bl	80025e2 <gpio_mode_setup>
	gpio_set_output_options(BIT0_PIN_PORT, GPIO_OTYPE_PP, GPIO_OSPEED_100MHZ, BIT0_PIN_ID);
 8001470:	2302      	movs	r3, #2
 8001472:	2203      	movs	r2, #3
 8001474:	4620      	mov	r0, r4
 8001476:	2100      	movs	r1, #0
 8001478:	f001 f8d3 	bl	8002622 <gpio_set_output_options>
	gpio_set(BIT0_PIN_PORT, BIT0_PIN_ID); //Default condition is "1"
 800147c:	4620      	mov	r0, r4
 800147e:	2102      	movs	r1, #2
 8001480:	f001 f893 	bl	80025aa <gpio_set>

	gpio_mode_setup(INT_TIM2_port, GPIO_MODE_OUTPUT, GPIO_PUPD_NONE, TIM2CC1_pin_id);
 8001484:	4620      	mov	r0, r4
 8001486:	2302      	movs	r3, #2
 8001488:	2200      	movs	r2, #0
 800148a:	2101      	movs	r1, #1
 800148c:	f001 f8a9 	bl	80025e2 <gpio_mode_setup>
	gpio_set_output_options(INT_TIM2_port, GPIO_OTYPE_PP, GPIO_OSPEED_100MHZ, TIM2CC1_pin_id);
 8001490:	2302      	movs	r3, #2
 8001492:	2203      	movs	r2, #3
 8001494:	4620      	mov	r0, r4
 8001496:	2100      	movs	r1, #0
 8001498:	f001 f8c3 	bl	8002622 <gpio_set_output_options>
	gpio_set(INT_TIM2_port, TIM2CC1_pin_id); //Default condition is "1"
 800149c:	4620      	mov	r0, r4
 800149e:	2102      	movs	r1, #2
 80014a0:	f001 f883 	bl	80025aa <gpio_set>

	gpio_mode_setup(INT_TIM2_port, GPIO_MODE_OUTPUT, GPIO_PUPD_NONE, TIM2UIF_pin_id); // PC3 (MSX 8255 Pin 17)
 80014a4:	4620      	mov	r0, r4
 80014a6:	2302      	movs	r3, #2
 80014a8:	2200      	movs	r2, #0
 80014aa:	2101      	movs	r1, #1
 80014ac:	f001 f899 	bl	80025e2 <gpio_mode_setup>
	gpio_set_output_options(INT_TIM2_port, GPIO_OTYPE_PP, GPIO_OSPEED_100MHZ, TIM2UIF_pin_id);
 80014b0:	2302      	movs	r3, #2
 80014b2:	2203      	movs	r2, #3
 80014b4:	4620      	mov	r0, r4
 80014b6:	2100      	movs	r1, #0
 80014b8:	f001 f8b3 	bl	8002622 <gpio_set_output_options>
	gpio_set(INT_TIM2_port, TIM2UIF_pin_id); //Default condition is "1"
 80014bc:	4620      	mov	r0, r4
 80014be:	2102      	movs	r1, #2
 80014c0:	f001 f873 	bl	80025aa <gpio_set>
	
	gpio_mode_setup(Dbg_Yint_port, GPIO_MODE_OUTPUT, GPIO_PUPD_NONE, Dbg_Yint2e3_pin_id); // PC2 e 3 (MSX 8255 Pin 17)
 80014c4:	4813      	ldr	r0, [pc, #76]	; (8001514 <general_debug_setup+0xd4>)
 80014c6:	f44f 7380 	mov.w	r3, #256	; 0x100
 80014ca:	2200      	movs	r2, #0
 80014cc:	2101      	movs	r1, #1
 80014ce:	f001 f888 	bl	80025e2 <gpio_mode_setup>
	gpio_set_output_options(Dbg_Yint_port, GPIO_OTYPE_PP, GPIO_OSPEED_100MHZ, Dbg_Yint2e3_pin_id);
 80014d2:	f44f 7380 	mov.w	r3, #256	; 0x100
 80014d6:	2203      	movs	r2, #3
 80014d8:	480e      	ldr	r0, [pc, #56]	; (8001514 <general_debug_setup+0xd4>)
 80014da:	2100      	movs	r1, #0
 80014dc:	f001 f8a1 	bl	8002622 <gpio_set_output_options>
	gpio_set(Dbg_Yint_port, Dbg_Yint2e3_pin_id); //Default condition is "1"
 80014e0:	480c      	ldr	r0, [pc, #48]	; (8001514 <general_debug_setup+0xd4>)
 80014e2:	f44f 7180 	mov.w	r1, #256	; 0x100
 80014e6:	f001 f860 	bl	80025aa <gpio_set>
	
	gpio_mode_setup(Dbg_Yint_port, GPIO_MODE_OUTPUT, GPIO_PUPD_NONE, Dbg_Yint0e1_pin_id); // PC2 (MSX 8255 Pin 17)
 80014ea:	480a      	ldr	r0, [pc, #40]	; (8001514 <general_debug_setup+0xd4>)
 80014ec:	2380      	movs	r3, #128	; 0x80
 80014ee:	2200      	movs	r2, #0
 80014f0:	2101      	movs	r1, #1
 80014f2:	f001 f876 	bl	80025e2 <gpio_mode_setup>
	gpio_set_output_options(Dbg_Yint_port, GPIO_OTYPE_PP, GPIO_OSPEED_100MHZ, Dbg_Yint0e1_pin_id);
 80014f6:	4807      	ldr	r0, [pc, #28]	; (8001514 <general_debug_setup+0xd4>)
 80014f8:	2100      	movs	r1, #0
 80014fa:	2380      	movs	r3, #128	; 0x80
 80014fc:	2203      	movs	r2, #3
 80014fe:	f001 f890 	bl	8002622 <gpio_set_output_options>
	gpio_set(Dbg_Yint_port, Dbg_Yint0e1_pin_id); //Default condition is "1"
}
 8001502:	e8bd 4010 	ldmia.w	sp!, {r4, lr}
	gpio_set(Dbg_Yint_port, Dbg_Yint0e1_pin_id); //Default condition is "1"
 8001506:	4803      	ldr	r0, [pc, #12]	; (8001514 <general_debug_setup+0xd4>)
 8001508:	2180      	movs	r1, #128	; 0x80
 800150a:	f001 b84e 	b.w	80025aa <gpio_set>
 800150e:	bf00      	nop
 8001510:	40020000 	andmi	r0, r2, r0
 8001514:	40020400 	andmi	r0, r2, r0, lsl #8

08001518 <exti15_10_isr>:
/*************************************************************************************************/
/******************************************* ISR's ***********************************************/
/*************************************************************************************************/
/*************************************************************************************************/
void exti15_10_isr(void) // PS/2 Clock
{
 8001518:	b508      	push	{r3, lr}
	//Now starts PS2Clk interrupt handler
	//Debug & performance measurement
	gpio_clear(BIT0_PIN_PORT, BIT0_PIN_ID); //Signs start of interruption
 800151a:	480e      	ldr	r0, [pc, #56]	; (8001554 <exti15_10_isr+0x3c>)
 800151c:	2102      	movs	r1, #2
 800151e:	f001 f846 	bl	80025ae <gpio_clear>
	//This was the ISR of PS/2 clock pin. It jumps to ps2_clock_update.
	//It is an important ISR, but it does not require critical timming resources as MSX Y scan does.
	if(exti_get_flag_status(PS2_CLOCK_PIN_EXTI))  // EXTI15
 8001522:	f44f 4000 	mov.w	r0, #32768	; 0x8000
 8001526:	f000 ff91 	bl	800244c <exti_get_flag_status>
 800152a:	b160      	cbz	r0, 8001546 <exti15_10_isr+0x2e>
	{
		bool ps2datapin_logicstate=gpio_get(PS2_DATA_PIN_PORT, PS2_DATA_PIN_ID);
 800152c:	2120      	movs	r1, #32
 800152e:	480a      	ldr	r0, [pc, #40]	; (8001558 <exti15_10_isr+0x40>)
 8001530:	f001 f840 	bl	80025b4 <gpio_get>
		ps2_clock_update(ps2datapin_logicstate);
 8001534:	3800      	subs	r0, #0
 8001536:	bf18      	it	ne
 8001538:	2001      	movne	r0, #1
 800153a:	f7ff fd83 	bl	8001044 <ps2_clock_update>
		exti_reset_request(PS2_CLOCK_PIN_EXTI);
 800153e:	f44f 4000 	mov.w	r0, #32768	; 0x8000
 8001542:	f000 ff7d 	bl	8002440 <exti_reset_request>
	}
	//Debug & performance measurement
	gpio_set(BIT0_PIN_PORT, BIT0_PIN_ID); //Signs end of interruption. Default condition is "1"
}
 8001546:	e8bd 4008 	ldmia.w	sp!, {r3, lr}
	gpio_set(BIT0_PIN_PORT, BIT0_PIN_ID); //Signs end of interruption. Default condition is "1"
 800154a:	4802      	ldr	r0, [pc, #8]	; (8001554 <exti15_10_isr+0x3c>)
 800154c:	2102      	movs	r1, #2
 800154e:	f001 b82c 	b.w	80025aa <gpio_set>
 8001552:	bf00      	nop
 8001554:	40020000 	andmi	r0, r2, r0
 8001558:	40020400 	andmi	r0, r2, r0, lsl #8

0800155c <check_database>:
extern volatile bool update_ps2_leds;					//Declared on msxmap.cpp
extern bool ps2numlockstate;									//Declared on ps2handl.c
extern bool enable_xon_xoff;									//Declared on serial.c

void check_database(void)
{
 800155c:	e92d 4ff0 	stmdb	sp!, {r4, r5, r6, r7, r8, r9, sl, fp, lr}
	uint8_t str_mount[STRING_MOUNT_BUFFER_SIZE];
	uint8_t flash_buffer_ram[DATABASE_SIZE]; //Local variable, in aim to not consume resources in the main functional machine
	compatible_database = true;
 8001560:	4a53      	ldr	r2, [pc, #332]	; (80016b0 <check_database+0x154>)
 8001562:	2301      	movs	r3, #1
 8001564:	7013      	strb	r3, [r2, #0]
 8001566:	4b53      	ldr	r3, [pc, #332]	; (80016b4 <check_database+0x158>)
	uint8_t*base_of_database8;
	
	//Firstly verify if 0x803f400 is unprogrammed
	bool empty_database = true;
	base_of_database8 = (uint8_t *)INITIAL_DATABASE;
	for(iter = 0; iter < DATABASE_SIZE; iter += 1)
 8001568:	4a53      	ldr	r2, [pc, #332]	; (80016b8 <check_database+0x15c>)
{
 800156a:	f6ad 4d94 	subw	sp, sp, #3220	; 0xc94
	{
		if(*(base_of_database8 + iter) != 0xFF)
 800156e:	7819      	ldrb	r1, [r3, #0]
 8001570:	29ff      	cmp	r1, #255	; 0xff
 8001572:	d028      	beq.n	80015c6 <check_database+0x6a>
		} //for (iter = 0; iter < DATABASE_SIZE; iter+=4)	//3K must be checked

	}

	//Searching a valid (useful) Database. Unused databases are marked as UNUSED_DATABASE
	volatile uint32_t displacement = 0;
 8001574:	aa03      	add	r2, sp, #12

	while(((uint32_t)INITIAL_DATABASE - displacement) >= (uint32_t)FLASH_SECTOR5_BASE)
	{
		//Searching a valid (useful) Database. Unused databases are marked as UNUSED_DATABASE
		if(
		*(base_of_database8+0) == UNUSED_DATABASE[0] &&
 8001576:	4951      	ldr	r1, [pc, #324]	; (80016bc <check_database+0x160>)
	base_of_database8 = (uint8_t*)((uint32_t)INITIAL_DATABASE - displacement);
 8001578:	4c4e      	ldr	r4, [pc, #312]	; (80016b4 <check_database+0x158>)
		*(base_of_database8+0) == UNUSED_DATABASE[0] &&
 800157a:	7808      	ldrb	r0, [r1, #0]
 800157c:	9000      	str	r0, [sp, #0]
	volatile uint32_t displacement = 0;
 800157e:	2300      	movs	r3, #0
 8001580:	6013      	str	r3, [r2, #0]
	base_of_database8 = (uint8_t*)((uint32_t)INITIAL_DATABASE - displacement);
 8001582:	6813      	ldr	r3, [r2, #0]
		*(base_of_database8+1) == UNUSED_DATABASE[1] &&
 8001584:	7848      	ldrb	r0, [r1, #1]
		*(base_of_database8+2) == UNUSED_DATABASE[2] &&
 8001586:	788f      	ldrb	r7, [r1, #2]
		*(base_of_database8+3) == UNUSED_DATABASE[3] &&
 8001588:	f891 c003 	ldrb.w	ip, [r1, #3]
		*(base_of_database8+4) == UNUSED_DATABASE[4] &&
 800158c:	f891 e004 	ldrb.w	lr, [r1, #4]
		*(base_of_database8+5) == UNUSED_DATABASE[5] &&
 8001590:	794e      	ldrb	r6, [r1, #5]
		*(base_of_database8+6) == UNUSED_DATABASE[5] &&
		*(base_of_database8+7) == UNUSED_DATABASE[7] &&
 8001592:	f891 8007 	ldrb.w	r8, [r1, #7]
		*(base_of_database8+8) == UNUSED_DATABASE[8] &&
 8001596:	f891 9008 	ldrb.w	r9, [r1, #8]
		*(base_of_database8+9) == UNUSED_DATABASE[9] )
 800159a:	f891 a009 	ldrb.w	sl, [r1, #9]
		*(base_of_database8+1) == UNUSED_DATABASE[1] &&
 800159e:	9001      	str	r0, [sp, #4]
	base_of_database8 = (uint8_t*)((uint32_t)INITIAL_DATABASE - displacement);
 80015a0:	1ae3      	subs	r3, r4, r3
	while(((uint32_t)INITIAL_DATABASE - displacement) >= (uint32_t)FLASH_SECTOR5_BASE)
 80015a2:	4693      	mov	fp, r2
 80015a4:	f8db 0000 	ldr.w	r0, [fp]
 80015a8:	4d45      	ldr	r5, [pc, #276]	; (80016c0 <check_database+0x164>)
		*(base_of_database8+0) == UNUSED_DATABASE[0] &&
 80015aa:	7819      	ldrb	r1, [r3, #0]
	while(((uint32_t)INITIAL_DATABASE - displacement) >= (uint32_t)FLASH_SECTOR5_BASE)
 80015ac:	1a20      	subs	r0, r4, r0
 80015ae:	42a8      	cmp	r0, r5
 80015b0:	d847      	bhi.n	8001642 <check_database+0xe6>
		else
			break;	//if it is here, it found a valid Database
	}

	//Locate: MSX_KEYB_DATABASE_CONVERSION[0][3] *(base_of_database+3)
	if ((*(base_of_database8+0) != 1) || (*(base_of_database8+1) != 0))
 80015b2:	2901      	cmp	r1, #1
 80015b4:	d102      	bne.n	80015bc <check_database+0x60>
 80015b6:	785a      	ldrb	r2, [r3, #1]
 80015b8:	2a00      	cmp	r2, #0
 80015ba:	d067      	beq.n	800168c <check_database+0x130>
	{
		//Incompatible Database
		compatible_database = false;
 80015bc:	4a3c      	ldr	r2, [pc, #240]	; (80016b0 <check_database+0x154>)
		usart_send_string((uint8_t*)"\r\n\n!!!Attention!!! => No valid Database found. Please update it!\r\n\n");
 80015be:	4841      	ldr	r0, [pc, #260]	; (80016c4 <check_database+0x168>)
		compatible_database = false;
 80015c0:	2300      	movs	r3, #0
 80015c2:	7013      	strb	r3, [r2, #0]
		usart_send_string((uint8_t*)"\r\n\n!!!Attention!!! => No valid Database found. Please update it!\r\n\n");
 80015c4:	e032      	b.n	800162c <check_database+0xd0>
	for(iter = 0; iter < DATABASE_SIZE; iter += 1)
 80015c6:	3301      	adds	r3, #1
 80015c8:	4293      	cmp	r3, r2
 80015ca:	d1d0      	bne.n	800156e <check_database+0x12>
				volatile uint32_t ch4 = *(base_of_database + iter);
 80015cc:	4e3e      	ldr	r6, [pc, #248]	; (80016c8 <check_database+0x16c>)
 80015ce:	6832      	ldr	r2, [r6, #0]
 80015d0:	2400      	movs	r4, #0
				flash_buffer_ram[iter] = ch4;
 80015d2:	af24      	add	r7, sp, #144	; 0x90
				volatile uint32_t ch4 = *(base_of_database + iter);
 80015d4:	f852 3024 	ldr.w	r3, [r2, r4, lsl #2]
 80015d8:	9302      	str	r3, [sp, #8]
				flash_buffer_ram[iter] = ch4;
 80015da:	9b02      	ldr	r3, [sp, #8]
 80015dc:	55e3      	strb	r3, [r4, r7]
		for(iter = 0; iter < DATABASE_SIZE; iter += 4)
 80015de:	3404      	adds	r4, #4
 80015e0:	f5b4 6f40 	cmp.w	r4, #3072	; 0xc00
 80015e4:	d1f6      	bne.n	80015d4 <check_database+0x78>
		base_of_database = (uint32_t*)INITIAL_DATABASE;
 80015e6:	4b33      	ldr	r3, [pc, #204]	; (80016b4 <check_database+0x158>)
		usart_send_string((uint8_t*)"\r\n\nInitializing Database on flash memory...\r\n\nBase Address  Size\r\n");
 80015e8:	4838      	ldr	r0, [pc, #224]	; (80016cc <check_database+0x170>)
		base_of_database = (uint32_t*)INITIAL_DATABASE;
 80015ea:	6033      	str	r3, [r6, #0]
		usart_send_string((uint8_t*)"\r\n\nInitializing Database on flash memory...\r\n\nBase Address  Size\r\n");
 80015ec:	f000 fb9d 	bl	8001d2a <usart_send_string>
		uintptr_t base_of_database_num = (uintptr_t)base_of_database;	//Convert from pointer to integer
 80015f0:	f8d6 8000 	ldr.w	r8, [r6]
		conv_uint32_to_8a_hex(((uint32_t)base_of_database_num), ptr);
 80015f4:	a904      	add	r1, sp, #16
 80015f6:	4640      	mov	r0, r8
 80015f8:	f000 fbbe 	bl	8001d78 <conv_uint32_to_8a_hex>
		usart_send_string((uint8_t*)" 0x");
 80015fc:	4834      	ldr	r0, [pc, #208]	; (80016d0 <check_database+0x174>)
 80015fe:	f000 fb94 	bl	8001d2a <usart_send_string>
		usart_send_string((uint8_t*)str_mount);
 8001602:	a804      	add	r0, sp, #16
 8001604:	f000 fb91 	bl	8001d2a <usart_send_string>
		usart_send_string((uint8_t*)"    3K");
 8001608:	4832      	ldr	r0, [pc, #200]	; (80016d4 <check_database+0x178>)
 800160a:	f000 fb8e 	bl	8001d2a <usart_send_string>
		flash_program((uint32_t)base_of_database_num, flash_buffer_ram, DATABASE_SIZE);
 800160e:	4622      	mov	r2, r4
 8001610:	4639      	mov	r1, r7
 8001612:	4640      	mov	r0, r8
 8001614:	f000 ffbc 	bl	8002590 <flash_program>
		usart_send_string((uint8_t*)"\r\n\nVerification of written data:\r\n");
 8001618:	482f      	ldr	r0, [pc, #188]	; (80016d8 <check_database+0x17c>)
 800161a:	f000 fb86 	bl	8001d2a <usart_send_string>
			if(	*(base_of_database + iter) != *((uint32_t*)(flash_buffer_ram) + iter) )
 800161e:	6832      	ldr	r2, [r6, #0]
 8001620:	2300      	movs	r3, #0
 8001622:	58d0      	ldr	r0, [r2, r3]
 8001624:	58f9      	ldr	r1, [r7, r3]
 8001626:	4288      	cmp	r0, r1
 8001628:	d006      	beq.n	8001638 <check_database+0xdc>
				usart_send_string((uint8_t*)"Wrong data written into flash memory\r\n");
 800162a:	482c      	ldr	r0, [pc, #176]	; (80016dc <check_database+0x180>)
		usart_send_string((uint8_t*)"\r\n\n!!!Attention!!! => No valid Database found. Please update it!\r\n\n");
 800162c:	f000 fb7d 	bl	8001d2a <usart_send_string>
		ps2numlockstate = (*(base_of_database8+3) & 0x10) != 0; //Bit 4
		enable_xon_xoff = (*(base_of_database8+3) & 0x20) != 0; //Bit 5
		update_ps2_leds = true;
		base_of_database = (uint32_t*)base_of_database8;
	}
}
 8001630:	f60d 4d94 	addw	sp, sp, #3220	; 0xc94
 8001634:	e8bd 8ff0 	ldmia.w	sp!, {r4, r5, r6, r7, r8, r9, sl, fp, pc}
		for (iter = 0; iter < DATABASE_SIZE; iter+=4)	//3K must be checked
 8001638:	3310      	adds	r3, #16
 800163a:	f5b3 5f40 	cmp.w	r3, #12288	; 0x3000
 800163e:	d1f0      	bne.n	8001622 <check_database+0xc6>
 8001640:	e798      	b.n	8001574 <check_database+0x18>
		if(
 8001642:	9800      	ldr	r0, [sp, #0]
 8001644:	4288      	cmp	r0, r1
 8001646:	d1b4      	bne.n	80015b2 <check_database+0x56>
		*(base_of_database8+0) == UNUSED_DATABASE[0] &&
 8001648:	7858      	ldrb	r0, [r3, #1]
 800164a:	9d01      	ldr	r5, [sp, #4]
 800164c:	42a8      	cmp	r0, r5
 800164e:	d1b0      	bne.n	80015b2 <check_database+0x56>
		*(base_of_database8+1) == UNUSED_DATABASE[1] &&
 8001650:	7898      	ldrb	r0, [r3, #2]
 8001652:	42b8      	cmp	r0, r7
 8001654:	d1ad      	bne.n	80015b2 <check_database+0x56>
		*(base_of_database8+2) == UNUSED_DATABASE[2] &&
 8001656:	78d8      	ldrb	r0, [r3, #3]
 8001658:	4560      	cmp	r0, ip
 800165a:	d1aa      	bne.n	80015b2 <check_database+0x56>
		*(base_of_database8+3) == UNUSED_DATABASE[3] &&
 800165c:	7918      	ldrb	r0, [r3, #4]
 800165e:	4570      	cmp	r0, lr
 8001660:	d1a7      	bne.n	80015b2 <check_database+0x56>
		*(base_of_database8+4) == UNUSED_DATABASE[4] &&
 8001662:	7958      	ldrb	r0, [r3, #5]
 8001664:	42b0      	cmp	r0, r6
 8001666:	d1a4      	bne.n	80015b2 <check_database+0x56>
		*(base_of_database8+5) == UNUSED_DATABASE[5] &&
 8001668:	7998      	ldrb	r0, [r3, #6]
 800166a:	42b0      	cmp	r0, r6
 800166c:	d1a1      	bne.n	80015b2 <check_database+0x56>
		*(base_of_database8+6) == UNUSED_DATABASE[5] &&
 800166e:	79d8      	ldrb	r0, [r3, #7]
 8001670:	4540      	cmp	r0, r8
 8001672:	d19e      	bne.n	80015b2 <check_database+0x56>
		*(base_of_database8+7) == UNUSED_DATABASE[7] &&
 8001674:	7a18      	ldrb	r0, [r3, #8]
 8001676:	4548      	cmp	r0, r9
 8001678:	d19b      	bne.n	80015b2 <check_database+0x56>
		*(base_of_database8+8) == UNUSED_DATABASE[8] &&
 800167a:	7a58      	ldrb	r0, [r3, #9]
 800167c:	4550      	cmp	r0, sl
 800167e:	d198      	bne.n	80015b2 <check_database+0x56>
			displacement =+ 0xC00;
 8001680:	f44f 6340 	mov.w	r3, #3072	; 0xc00
 8001684:	6013      	str	r3, [r2, #0]
			base_of_database8 = (uint8_t*)((uint32_t)INITIAL_DATABASE - displacement);
 8001686:	6813      	ldr	r3, [r2, #0]
 8001688:	1ae3      	subs	r3, r4, r3
 800168a:	e78b      	b.n	80015a4 <check_database+0x48>
		y_dummy = *(base_of_database8+3) & 0x0F; //Low nibble (no keys at this column)
 800168c:	78da      	ldrb	r2, [r3, #3]
 800168e:	4814      	ldr	r0, [pc, #80]	; (80016e0 <check_database+0x184>)
 8001690:	f002 040f 	and.w	r4, r2, #15
 8001694:	7004      	strb	r4, [r0, #0]
		ps2numlockstate = (*(base_of_database8+3) & 0x10) != 0; //Bit 4
 8001696:	4813      	ldr	r0, [pc, #76]	; (80016e4 <check_database+0x188>)
 8001698:	f3c2 1400 	ubfx	r4, r2, #4, #1
 800169c:	7004      	strb	r4, [r0, #0]
		enable_xon_xoff = (*(base_of_database8+3) & 0x20) != 0; //Bit 5
 800169e:	4812      	ldr	r0, [pc, #72]	; (80016e8 <check_database+0x18c>)
 80016a0:	f3c2 1240 	ubfx	r2, r2, #5, #1
 80016a4:	7002      	strb	r2, [r0, #0]
		update_ps2_leds = true;
 80016a6:	4a11      	ldr	r2, [pc, #68]	; (80016ec <check_database+0x190>)
 80016a8:	7011      	strb	r1, [r2, #0]
		base_of_database = (uint32_t*)base_of_database8;
 80016aa:	4a07      	ldr	r2, [pc, #28]	; (80016c8 <check_database+0x16c>)
 80016ac:	6013      	str	r3, [r2, #0]
 80016ae:	e7bf      	b.n	8001630 <check_database+0xd4>
 80016b0:	2000054e 	andcs	r0, r0, lr, asr #10
 80016b4:	0803f400 	stmdaeq	r3, {sl, ip, sp, lr, pc}
 80016b8:	08040000 	stmdaeq	r4, {}	; <UNPREDICTABLE>
 80016bc:	20000000 	andcs	r0, r0, r0
 80016c0:	0801ffff 	stmdaeq	r1, {r0, r1, r2, r3, r4, r5, r6, r7, r8, r9, sl, fp, ip, sp, lr, pc}
 80016c4:	08004088 	stmdaeq	r0, {r3, r7, lr}
 80016c8:	2000045c 	andcs	r0, r0, ip, asr r4
 80016cc:	08003ff4 	stmdaeq	r0, {r2, r4, r5, r6, r7, r8, r9, sl, fp, ip, sp}
 80016d0:	08003f56 	stmdaeq	r0, {r1, r2, r4, r6, r8, r9, sl, fp, ip, sp}
 80016d4:	08004037 	stmdaeq	r0, {r0, r1, r2, r4, r5, lr}
 80016d8:	0800403e 	stmdaeq	r0, {r1, r2, r3, r4, r5, lr}
 80016dc:	08004061 	stmdaeq	r0, {r0, r5, r6, lr}
 80016e0:	200004f0 	strdcs	r0, [r0], -r0	; <UNPREDICTABLE>
 80016e4:	2000054c 	andcs	r0, r0, ip, asr #10
 80016e8:	2000000a 	andcs	r0, r0, sl
 80016ec:	200004ac 	andcs	r0, r0, ip, lsr #9

080016f0 <usart_get_string_line>:
	return result;
}


void usart_get_string_line(uint8_t *ser_inp_line, uint16_t str_max_size)
{ //Reads until CR and sends as a ASCIIZ on *ser_inp_line
 80016f0:	e92d 43f8 	stmdb	sp!, {r3, r4, r5, r6, r7, r8, r9, lr}
	uint8_t sign = 0;
	uint16_t iter = 0;
 80016f4:	2500      	movs	r5, #0
					__asm("nop");
		}
#endif

		if(sign == 3)
			abort_intelhex_reception = true;
 80016f6:	f8df 90b0 	ldr.w	r9, [pc, #176]	; 80017a8 <usart_get_string_line+0xb8>
{ //Reads until CR and sends as a ASCIIZ on *ser_inp_line
 80016fa:	4606      	mov	r6, r0
 80016fc:	460f      	mov	r7, r1
 80016fe:	46a8      	mov	r8, r5
	while(iter < str_max_size)
 8001700:	42bd      	cmp	r5, r7
 8001702:	d301      	bcc.n	8001708 <usart_get_string_line+0x18>
 8001704:	e02d      	b.n	8001762 <usart_get_string_line+0x72>
			__asm("nop");
 8001706:	bf00      	nop
		while (!serial_available_get_char())
 8001708:	f000 fac2 	bl	8001c90 <serial_available_get_char>
 800170c:	2800      	cmp	r0, #0
 800170e:	d0fa      	beq.n	8001706 <usart_get_string_line+0x16>
		sign = serial_get_char();
 8001710:	f000 fac8 	bl	8001ca4 <serial_get_char>
		if (sign == 3)
 8001714:	2803      	cmp	r0, #3
		sign = serial_get_char();
 8001716:	4604      	mov	r4, r0
		if (sign == 3)
 8001718:	d10f      	bne.n	800173a <usart_get_string_line+0x4a>
			while (!serial_put_char('^'))
 800171a:	205e      	movs	r0, #94	; 0x5e
 800171c:	f000 fafc 	bl	8001d18 <serial_put_char>
 8001720:	b138      	cbz	r0, 8001732 <usart_get_string_line+0x42>
			while (!serial_put_char('C'))
 8001722:	2043      	movs	r0, #67	; 0x43
 8001724:	f000 faf8 	bl	8001d18 <serial_put_char>
 8001728:	b128      	cbz	r0, 8001736 <usart_get_string_line+0x46>
			abort_intelhex_reception = true;
 800172a:	2301      	movs	r3, #1
 800172c:	f889 3000 	strb.w	r3, [r9]
 8001730:	e7e6      	b.n	8001700 <usart_get_string_line+0x10>
				__asm("nop");
 8001732:	bf00      	nop
 8001734:	e7f1      	b.n	800171a <usart_get_string_line+0x2a>
				__asm("nop");
 8001736:	bf00      	nop
 8001738:	e7f3      	b.n	8001722 <usart_get_string_line+0x32>
		else if (sign != '\r')  //if sign == '\r' do nothing
 800173a:	280d      	cmp	r0, #13
 800173c:	d009      	beq.n	8001752 <usart_get_string_line+0x62>
			if (sign == '\n')
 800173e:	280a      	cmp	r0, #10
 8001740:	d11b      	bne.n	800177a <usart_get_string_line+0x8a>
				while (!serial_put_char('\r'))
 8001742:	200d      	movs	r0, #13
 8001744:	f000 fae8 	bl	8001d18 <serial_put_char>
 8001748:	b190      	cbz	r0, 8001770 <usart_get_string_line+0x80>
				while (!serial_put_char('\n'))
 800174a:	200a      	movs	r0, #10
 800174c:	f000 fae4 	bl	8001d18 <serial_put_char>
 8001750:	b180      	cbz	r0, 8001774 <usart_get_string_line+0x84>
			//only accepts char between '0' ~ ':', 'A' ~ 'F', 'a' ~ 'f'
			if( ( ((sign > ('/')) && (sign < (':'+1))) ||
					(((sign&0x5F) > ('A'-1)) && ((sign&0x5F) < ('G'))))	)
				//assembling the record
				ser_inp_line[iter++] = sign;
			else if( (iter > 10) && ((sign == '\n') || (sign == '\r')) )	//	'\r' or '\n'
 8001752:	2d0a      	cmp	r5, #10
 8001754:	d924      	bls.n	80017a0 <usart_get_string_line+0xb0>
 8001756:	2c0a      	cmp	r4, #10
 8001758:	d001      	beq.n	800175e <usart_get_string_line+0x6e>
 800175a:	2c0d      	cmp	r4, #13
 800175c:	d120      	bne.n	80017a0 <usart_get_string_line+0xb0>
			{	//End of record. Close the ASCIIZ.
				ser_inp_line[iter++] = 0;
 800175e:	f806 8005 	strb.w	r8, [r6, r5]
			}
		}
	} //while(iter < str_max_size)
	// Indicates that we received new line data, and it is going to be validated.
	gpio_toggle(GPIOC, GPIO13);	//Blinks a cycle each two received lines
}
 8001762:	e8bd 43f8 	ldmia.w	sp!, {r3, r4, r5, r6, r7, r8, r9, lr}
	gpio_toggle(GPIOC, GPIO13);	//Blinks a cycle each two received lines
 8001766:	480f      	ldr	r0, [pc, #60]	; (80017a4 <usart_get_string_line+0xb4>)
 8001768:	f44f 5100 	mov.w	r1, #8192	; 0x2000
 800176c:	f000 bf25 	b.w	80025ba <gpio_toggle>
					__asm("nop");
 8001770:	bf00      	nop
 8001772:	e7e6      	b.n	8001742 <usart_get_string_line+0x52>
					__asm("nop");
 8001774:	bf00      	nop
 8001776:	e7e8      	b.n	800174a <usart_get_string_line+0x5a>
					__asm("nop");
 8001778:	bf00      	nop
				while (!serial_put_char(sign))
 800177a:	4620      	mov	r0, r4
 800177c:	f000 facc 	bl	8001d18 <serial_put_char>
 8001780:	2800      	cmp	r0, #0
 8001782:	d0f9      	beq.n	8001778 <usart_get_string_line+0x88>
			if( ( ((sign > ('/')) && (sign < (':'+1))) ||
 8001784:	f1a4 0330 	sub.w	r3, r4, #48	; 0x30
 8001788:	b2db      	uxtb	r3, r3
 800178a:	2b0a      	cmp	r3, #10
 800178c:	d904      	bls.n	8001798 <usart_get_string_line+0xa8>
					(((sign&0x5F) > ('A'-1)) && ((sign&0x5F) < ('G'))))	)
 800178e:	f004 035f 	and.w	r3, r4, #95	; 0x5f
 8001792:	3b41      	subs	r3, #65	; 0x41
			if( ( ((sign > ('/')) && (sign < (':'+1))) ||
 8001794:	2b05      	cmp	r3, #5
 8001796:	d8dc      	bhi.n	8001752 <usart_get_string_line+0x62>
				ser_inp_line[iter++] = sign;
 8001798:	1c6b      	adds	r3, r5, #1
 800179a:	5574      	strb	r4, [r6, r5]
 800179c:	b29d      	uxth	r5, r3
 800179e:	e7af      	b.n	8001700 <usart_get_string_line+0x10>
				iter = 0;
 80017a0:	2500      	movs	r5, #0
 80017a2:	e7ad      	b.n	8001700 <usart_get_string_line+0x10>
 80017a4:	40020800 	andmi	r0, r2, r0, lsl #16
 80017a8:	2000054d 	andcs	r0, r0, sp, asr #10

080017ac <validate_intel_hex_record>:
}


bool validate_intel_hex_record(uint8_t *ser_inp_line, uint8_t *intel_hex_numofdatabytes,
		 uint8_t *intel_hex_type, uint16_t *intel_hex_address, uint8_t *intel_hex_localreg_data)
{
 80017ac:	e92d 47f0 	stmdb	sp!, {r4, r5, r6, r7, r8, r9, sl, lr}
 80017b0:	461f      	mov	r7, r3
	int16_t i;

	//Record Intel Hex ":llaaaatt[dd...]cc"

	//":llaaaatt[dd...]cc" : is the colon that starts every Intel HEX record
	if (ser_inp_line[0] != ':')
 80017b2:	7803      	ldrb	r3, [r0, #0]
{
 80017b4:	f8dd 8020 	ldr.w	r8, [sp, #32]
	if (ser_inp_line[0] != ':')
 80017b8:	2b3a      	cmp	r3, #58	; 0x3a
{
 80017ba:	4604      	mov	r4, r0
 80017bc:	460d      	mov	r5, r1
 80017be:	4616      	mov	r6, r2
	if (ser_inp_line[0] != ':')
 80017c0:	d005      	beq.n	80017ce <validate_intel_hex_record+0x22>
	{
		//Error: Not started with ":"
		error_intel_hex = true;
 80017c2:	4b29      	ldr	r3, [pc, #164]	; (8001868 <validate_intel_hex_record+0xbc>)
 80017c4:	2201      	movs	r2, #1
 80017c6:	701a      	strb	r2, [r3, #0]
		return false;
 80017c8:	2000      	movs	r0, #0
	checksum_calc += checksum_read;
	//And check the computed Checksum
	if (checksum_calc != 0)
		error_intel_hex = true;
	return !error_intel_hex;
}
 80017ca:	e8bd 87f0 	ldmia.w	sp!, {r4, r5, r6, r7, r8, r9, sl, pc}
	*intel_hex_numofdatabytes = conv_2a_hex_to_uint8(ser_inp_line, 1);
 80017ce:	2101      	movs	r1, #1
 80017d0:	f000 fabb 	bl	8001d4a <conv_2a_hex_to_uint8>
	*intel_hex_address = (conv_2a_hex_to_uint8(ser_inp_line, 3) << 8) + (conv_2a_hex_to_uint8(ser_inp_line, 5));
 80017d4:	2103      	movs	r1, #3
	*intel_hex_numofdatabytes = conv_2a_hex_to_uint8(ser_inp_line, 1);
 80017d6:	7028      	strb	r0, [r5, #0]
	*intel_hex_address = (conv_2a_hex_to_uint8(ser_inp_line, 3) << 8) + (conv_2a_hex_to_uint8(ser_inp_line, 5));
 80017d8:	4620      	mov	r0, r4
 80017da:	f000 fab6 	bl	8001d4a <conv_2a_hex_to_uint8>
 80017de:	2105      	movs	r1, #5
 80017e0:	4681      	mov	r9, r0
 80017e2:	4620      	mov	r0, r4
 80017e4:	f000 fab1 	bl	8001d4a <conv_2a_hex_to_uint8>
 80017e8:	eb00 2009 	add.w	r0, r0, r9, lsl #8
 80017ec:	8038      	strh	r0, [r7, #0]
	*intel_hex_type = conv_2a_hex_to_uint8(ser_inp_line, 7);
 80017ee:	2107      	movs	r1, #7
 80017f0:	4620      	mov	r0, r4
 80017f2:	f000 faaa 	bl	8001d4a <conv_2a_hex_to_uint8>
 80017f6:	7030      	strb	r0, [r6, #0]
	if (*intel_hex_numofdatabytes > 0)
 80017f8:	782b      	ldrb	r3, [r5, #0]
 80017fa:	bb5b      	cbnz	r3, 8001854 <validate_intel_hex_record+0xa8>
	checksum_read = conv_2a_hex_to_uint8(ser_inp_line, 2 * (*intel_hex_numofdatabytes) + 9);
 80017fc:	7829      	ldrb	r1, [r5, #0]
 80017fe:	0049      	lsls	r1, r1, #1
 8001800:	3109      	adds	r1, #9
 8001802:	4620      	mov	r0, r4
 8001804:	f000 faa1 	bl	8001d4a <conv_2a_hex_to_uint8>
	checksum_calc = *intel_hex_numofdatabytes; // Checksum init
 8001808:	782a      	ldrb	r2, [r5, #0]
	for(i = 0; i < *intel_hex_numofdatabytes; i++)
 800180a:	2300      	movs	r3, #0
	checksum_calc = *intel_hex_numofdatabytes; // Checksum init
 800180c:	4611      	mov	r1, r2
	for(i = 0; i < *intel_hex_numofdatabytes; i++)
 800180e:	429a      	cmp	r2, r3
 8001810:	dc23      	bgt.n	800185a <validate_intel_hex_record+0xae>
	checksum_calc += (uint8_t)((*intel_hex_address & 0xFF00) >> 8) + (uint8_t)(*intel_hex_address & 0x00FF);
 8001812:	883a      	ldrh	r2, [r7, #0]
	checksum_calc += checksum_read;
 8001814:	7833      	ldrb	r3, [r6, #0]
 8001816:	4413      	add	r3, r2
 8001818:	eb03 2312 	add.w	r3, r3, r2, lsr #8
 800181c:	4418      	add	r0, r3
 800181e:	4401      	add	r1, r0
	if (checksum_calc != 0)
 8001820:	b2c9      	uxtb	r1, r1
 8001822:	4b11      	ldr	r3, [pc, #68]	; (8001868 <validate_intel_hex_record+0xbc>)
 8001824:	b109      	cbz	r1, 800182a <validate_intel_hex_record+0x7e>
		error_intel_hex = true;
 8001826:	2201      	movs	r2, #1
 8001828:	701a      	strb	r2, [r3, #0]
	return !error_intel_hex;
 800182a:	7818      	ldrb	r0, [r3, #0]
 800182c:	f080 0001 	eor.w	r0, r0, #1
 8001830:	e7cb      	b.n	80017ca <validate_intel_hex_record+0x1e>
			intel_hex_localreg_data[i] = conv_2a_hex_to_uint8(ser_inp_line, 2 * i + 9);
 8001832:	ea4f 0149 	mov.w	r1, r9, lsl #1
 8001836:	3107      	adds	r1, #7
 8001838:	b209      	sxth	r1, r1
 800183a:	4620      	mov	r0, r4
 800183c:	f000 fa85 	bl	8001d4a <conv_2a_hex_to_uint8>
 8001840:	f808 000a 	strb.w	r0, [r8, sl]
		for(i = 0; i < *intel_hex_numofdatabytes; i ++) //2 ASCII bytes per each byte of data in the record
 8001844:	782b      	ldrb	r3, [r5, #0]
 8001846:	fa0f fa89 	sxth.w	sl, r9
 800184a:	459a      	cmp	sl, r3
 800184c:	f109 0901 	add.w	r9, r9, #1
 8001850:	dbef      	blt.n	8001832 <validate_intel_hex_record+0x86>
 8001852:	e7d3      	b.n	80017fc <validate_intel_hex_record+0x50>
 8001854:	f04f 0900 	mov.w	r9, #0
 8001858:	e7f4      	b.n	8001844 <validate_intel_hex_record+0x98>
		checksum_calc += intel_hex_localreg_data[i];
 800185a:	f818 4003 	ldrb.w	r4, [r8, r3]
 800185e:	4421      	add	r1, r4
 8001860:	b2c9      	uxtb	r1, r1
	for(i = 0; i < *intel_hex_numofdatabytes; i++)
 8001862:	3301      	adds	r3, #1
 8001864:	e7d3      	b.n	800180e <validate_intel_hex_record+0x62>
 8001866:	bf00      	nop
 8001868:	2000054f 	andcs	r0, r0, pc, asr #10

0800186c <usart_get_intel_hex>:
{
 800186c:	e92d 4ff0 	stmdb	sp!, {r4, r5, r6, r7, r8, r9, sl, fp, lr}
 8001870:	4616      	mov	r6, r2
 8001872:	b097      	sub	sp, #92	; 0x5c
	error_intel_hex = false;
 8001874:	4f30      	ldr	r7, [pc, #192]	; (8001938 <usart_get_intel_hex+0xcc>)
				usart_send_string((uint8_t*)" Error: Invalid");
 8001876:	f8df b0c8 	ldr.w	fp, [pc, #200]	; 8001940 <usart_get_intel_hex+0xd4>
	intel_hex_numofdatabytes = 0; //Force init of uint8_t here
 800187a:	2400      	movs	r4, #0
{
 800187c:	4605      	mov	r5, r0
 800187e:	4688      	mov	r8, r1
		ram_buffer[i] = (uint8_t)0xFF;
 8001880:	f44f 6240 	mov.w	r2, #3072	; 0xc00
 8001884:	21ff      	movs	r1, #255	; 0xff
 8001886:	4630      	mov	r0, r6
	intel_hex_numofdatabytes = 0; //Force init of uint8_t here
 8001888:	f88d 4014 	strb.w	r4, [sp, #20]
	intel_hex_type = 0; //Force init of uint8_t here
 800188c:	f88d 4015 	strb.w	r4, [sp, #21]
	intel_hex_address = 0; //Force init of uint16_t here
 8001890:	f8ad 4016 	strh.w	r4, [sp, #22]
	error_intel_hex = false;
 8001894:	703c      	strb	r4, [r7, #0]
		ram_buffer[i] = (uint8_t)0xFF;
 8001896:	f001 fadf 	bl	8002e58 <memset>
	seek_first_intel_hex_address_for_data = true;
 800189a:	f04f 0901 	mov.w	r9, #1
	while (intel_hex_type != 1) //Run until intel_hex_type == 1: means end-of-file record
 800189e:	f89d 3015 	ldrb.w	r3, [sp, #21]
 80018a2:	2b01      	cmp	r3, #1
 80018a4:	d102      	bne.n	80018ac <usart_get_intel_hex+0x40>
}
 80018a6:	b017      	add	sp, #92	; 0x5c
 80018a8:	e8bd 8ff0 	ldmia.w	sp!, {r4, r5, r6, r7, r8, r9, sl, fp, pc}
		usart_get_string_line(ser_inp_line, str_max_size);
 80018ac:	4641      	mov	r1, r8
 80018ae:	4628      	mov	r0, r5
 80018b0:	f7ff ff1e 	bl	80016f0 <usart_get_string_line>
		if (!abort_intelhex_reception)
 80018b4:	4b21      	ldr	r3, [pc, #132]	; (800193c <usart_get_intel_hex+0xd0>)
 80018b6:	781b      	ldrb	r3, [r3, #0]
 80018b8:	2b00      	cmp	r3, #0
 80018ba:	d1f0      	bne.n	800189e <usart_get_intel_hex+0x32>
			if (validate_intel_hex_record(ser_inp_line, &intel_hex_numofdatabytes, &intel_hex_type,
 80018bc:	f10d 0a18 	add.w	sl, sp, #24
 80018c0:	f8cd a000 	str.w	sl, [sp]
 80018c4:	f10d 0316 	add.w	r3, sp, #22
 80018c8:	f10d 0215 	add.w	r2, sp, #21
 80018cc:	a905      	add	r1, sp, #20
 80018ce:	4628      	mov	r0, r5
 80018d0:	f7ff ff6c 	bl	80017ac <validate_intel_hex_record>
 80018d4:	b360      	cbz	r0, 8001930 <usart_get_intel_hex+0xc4>
			if (intel_hex_type == 0)  //00 - data record
 80018d6:	f89d 3015 	ldrb.w	r3, [sp, #21]
 80018da:	b98b      	cbnz	r3, 8001900 <usart_get_intel_hex+0x94>
						first_data_address_intel_hex = intel_hex_address;
 80018dc:	f8bd 0016 	ldrh.w	r0, [sp, #22]
						ram_buffer[shifting + i] = intel_hex_localreg_data[i];
 80018e0:	f89d 2014 	ldrb.w	r2, [sp, #20]
 80018e4:	9303      	str	r3, [sp, #12]
						first_data_address_intel_hex = intel_hex_address;
 80018e6:	f1b9 0f00 	cmp.w	r9, #0
 80018ea:	bf18      	it	ne
 80018ec:	4604      	movne	r4, r0
						shifting = ((uint16_t)intel_hex_address - (uint16_t)first_data_address_intel_hex);
 80018ee:	1b00      	subs	r0, r0, r4
						ram_buffer[shifting + i] = intel_hex_localreg_data[i];
 80018f0:	4651      	mov	r1, sl
 80018f2:	fa16 f080 	uxtah	r0, r6, r0
 80018f6:	f001 fa15 	bl	8002d24 <memcpy>
 80018fa:	9b03      	ldr	r3, [sp, #12]
 80018fc:	4699      	mov	r9, r3
 80018fe:	e7ce      	b.n	800189e <usart_get_intel_hex+0x32>
				else if (intel_hex_type == 1) //01 - end-of-file record
 8001900:	2b01      	cmp	r3, #1
 8001902:	d0d0      	beq.n	80018a6 <usart_get_intel_hex+0x3a>
				else if (intel_hex_type == 2)  //02 - extended segment address record
 8001904:	2b02      	cmp	r3, #2
 8001906:	d101      	bne.n	800190c <usart_get_intel_hex+0xa0>
					__asm("nop"); //not useful in this code
 8001908:	bf00      	nop
 800190a:	e7c8      	b.n	800189e <usart_get_intel_hex+0x32>
				else if (intel_hex_type == 4) //04 - extended linear address record
 800190c:	2b04      	cmp	r3, #4
 800190e:	d10c      	bne.n	800192a <usart_get_intel_hex+0xbe>
					if (intel_hex_numofdatabytes != 2) //intel_hex_numofdatabytes must be 2;
 8001910:	f89d 3014 	ldrb.w	r3, [sp, #20]
 8001914:	2b02      	cmp	r3, #2
						error_intel_hex = true;
 8001916:	bf1c      	itt	ne
 8001918:	2301      	movne	r3, #1
 800191a:	703b      	strbne	r3, [r7, #0]
					if (intel_hex_localreg_data[0] != 0x08) //First data must be 0x08
 800191c:	f89d 3018 	ldrb.w	r3, [sp, #24]
 8001920:	2b08      	cmp	r3, #8
 8001922:	d0bc      	beq.n	800189e <usart_get_intel_hex+0x32>
				error_intel_hex = true;
 8001924:	2301      	movs	r3, #1
 8001926:	703b      	strb	r3, [r7, #0]
 8001928:	e7b9      	b.n	800189e <usart_get_intel_hex+0x32>
				else if (intel_hex_type == 5)  //05 - start linear address record (MDK-ARM only)
 800192a:	2b05      	cmp	r3, #5
 800192c:	d1b7      	bne.n	800189e <usart_get_intel_hex+0x32>
 800192e:	e7eb      	b.n	8001908 <usart_get_intel_hex+0x9c>
				usart_send_string((uint8_t*)" Error: Invalid");
 8001930:	4658      	mov	r0, fp
 8001932:	f000 f9fa 	bl	8001d2a <usart_send_string>
 8001936:	e7f5      	b.n	8001924 <usart_get_intel_hex+0xb8>
 8001938:	2000054f 	andcs	r0, r0, pc, asr #10
 800193c:	2000054d 	andcs	r0, r0, sp, asr #10
 8001940:	080040cc 	stmdaeq	r0, {r2, r3, r6, r7, lr}

08001944 <get_valid_intelhex_file>:
{
 8001944:	e92d 47f0 	stmdb	sp!, {r4, r5, r6, r7, r8, r9, sl, lr}
	error_intel_hex = true;
 8001948:	4c11      	ldr	r4, [pc, #68]	; (8001990 <get_valid_intelhex_file+0x4c>)
	abort_intelhex_reception = false;
 800194a:	f8df 8048 	ldr.w	r8, [pc, #72]	; 8001994 <get_valid_intelhex_file+0x50>
			usart_send_string((uint8_t*)"\r\n\n\n\n!!!!!INTERRUPTED!!!!!\r\n\nPlease resend the Intel Hex...");
 800194e:	f8df 9048 	ldr.w	r9, [pc, #72]	; 8001998 <get_valid_intelhex_file+0x54>
			usart_send_string((uint8_t*)"\r\n\n\n\nERROR in Intel Hex. ERROR\r\n\nPlease resend the Intel Hex...");
 8001952:	f8df a048 	ldr.w	sl, [pc, #72]	; 800199c <get_valid_intelhex_file+0x58>
	error_intel_hex = true;
 8001956:	2301      	movs	r3, #1
 8001958:	7023      	strb	r3, [r4, #0]
	abort_intelhex_reception = false;
 800195a:	2300      	movs	r3, #0
{
 800195c:	4605      	mov	r5, r0
 800195e:	460e      	mov	r6, r1
 8001960:	4617      	mov	r7, r2
	abort_intelhex_reception = false;
 8001962:	f888 3000 	strb.w	r3, [r8]
		usart_get_intel_hex(ser_inp_line, str_max_size, ram_buffer);
 8001966:	463a      	mov	r2, r7
 8001968:	4631      	mov	r1, r6
 800196a:	4628      	mov	r0, r5
 800196c:	f7ff ff7e 	bl	800186c <usart_get_intel_hex>
		if (error_intel_hex == true)
 8001970:	7823      	ldrb	r3, [r4, #0]
 8001972:	b13b      	cbz	r3, 8001984 <get_valid_intelhex_file+0x40>
			usart_send_string((uint8_t*)"\r\n\n\n\nERROR in Intel Hex. ERROR\r\n\nPlease resend the Intel Hex...");
 8001974:	4650      	mov	r0, sl
			usart_send_string((uint8_t*)"\r\n\n\n\n!!!!!INTERRUPTED!!!!!\r\n\nPlease resend the Intel Hex...");
 8001976:	f000 f9d8 	bl	8001d2a <usart_send_string>
	while (error_intel_hex == true)
 800197a:	7823      	ldrb	r3, [r4, #0]
 800197c:	2b00      	cmp	r3, #0
 800197e:	d1f2      	bne.n	8001966 <get_valid_intelhex_file+0x22>
}
 8001980:	e8bd 87f0 	ldmia.w	sp!, {r4, r5, r6, r7, r8, r9, sl, pc}
		else if (abort_intelhex_reception)
 8001984:	f898 3000 	ldrb.w	r3, [r8]
 8001988:	2b00      	cmp	r3, #0
 800198a:	d0f9      	beq.n	8001980 <get_valid_intelhex_file+0x3c>
			usart_send_string((uint8_t*)"\r\n\n\n\n!!!!!INTERRUPTED!!!!!\r\n\nPlease resend the Intel Hex...");
 800198c:	4648      	mov	r0, r9
 800198e:	e7f2      	b.n	8001976 <get_valid_intelhex_file+0x32>
 8001990:	2000054f 	andcs	r0, r0, pc, asr #10
 8001994:	2000054d 	andcs	r0, r0, sp, asr #10
 8001998:	0800411c 	stmdaeq	r0, {r2, r3, r4, r8, lr}
 800199c:	080040dc 	stmdaeq	r0, {r2, r3, r4, r6, r7, lr}

080019a0 <flash_program_data>:


uint32_t flash_program_data(uint8_t *fl_buffer_ram)
{
 80019a0:	e92d 47f0 	stmdb	sp!, {r4, r5, r6, r7, r8, r9, sl, lr}
	flash_wait_for_last_operation();*/

	//verify
	//1) If there is 3K room in sector 5 to acomodate a new Database image
	displacement = 0;
	base_of_database = (uint32_t*)((uint32_t)INITIAL_DATABASE);
 80019a4:	4c35      	ldr	r4, [pc, #212]	; (8001a7c <flash_program_data+0xdc>)
 80019a6:	4f36      	ldr	r7, [pc, #216]	; (8001a80 <flash_program_data+0xe0>)
	while( (((uint32_t)INITIAL_DATABASE - displacement) >= (uint32_t)FLASH_SECTOR5_BASE) && !ThreeKClearPageFound)
	{
		//Information to user
		void *ptr = &str_mount;
		conv_uint32_to_8a_hex(((uint32_t)INITIAL_DATABASE - displacement), ptr);
		usart_send_string((uint8_t*)" 0x");
 80019a8:	f8df a0e8 	ldr.w	sl, [pc, #232]	; 8001a94 <flash_program_data+0xf4>
		usart_send_string((uint8_t*)str_mount);
		usart_send_string((uint8_t*)"    3K");
 80019ac:	f8df 90e8 	ldr.w	r9, [pc, #232]	; 8001a98 <flash_program_data+0xf8>
	base_of_database = (uint32_t*)((uint32_t)INITIAL_DATABASE);
 80019b0:	6027      	str	r7, [r4, #0]
{
 80019b2:	b086      	sub	sp, #24
 80019b4:	4605      	mov	r5, r0
	usart_send_string((uint8_t*)"\r\n\nSearching for 3K bytes in flash memory...\r\n\nBase Address  Size  Status\r\n");
 80019b6:	4833      	ldr	r0, [pc, #204]	; (8001a84 <flash_program_data+0xe4>)
 80019b8:	f000 f9b7 	bl	8001d2a <usart_send_string>
	displacement = 0;
 80019bc:	2000      	movs	r0, #0
		conv_uint32_to_8a_hex(((uint32_t)INITIAL_DATABASE - displacement), ptr);
 80019be:	a901      	add	r1, sp, #4
 80019c0:	1a38      	subs	r0, r7, r0
 80019c2:	f000 f9d9 	bl	8001d78 <conv_uint32_to_8a_hex>
		usart_send_string((uint8_t*)" 0x");
 80019c6:	4650      	mov	r0, sl
 80019c8:	f000 f9af 	bl	8001d2a <usart_send_string>
		usart_send_string((uint8_t*)str_mount);
 80019cc:	a801      	add	r0, sp, #4
 80019ce:	f000 f9ac 	bl	8001d2a <usart_send_string>
		usart_send_string((uint8_t*)"    3K");
 80019d2:	4648      	mov	r0, r9
 80019d4:	f000 f9a9 	bl	8001d2a <usart_send_string>
			}
			else //if(	*(base_of_database + iter) != 0xFFFFFFFF )
			{
				//3K page is free on "base_of_database"
				ThreeKClearPageFound = true;
				usart_send_string((uint8_t*)"   Ok!\r\n");
 80019d8:	f8df 80d0 	ldr.w	r8, [pc, #208]	; 8001aac <flash_program_data+0x10c>
		usart_send_string((uint8_t*)"    3K");
 80019dc:	2600      	movs	r6, #0
			if(	*(base_of_database + iter) != 0xFFFFFFFF )
 80019de:	6823      	ldr	r3, [r4, #0]
 80019e0:	599b      	ldr	r3, [r3, r6]
 80019e2:	3301      	adds	r3, #1
 80019e4:	d007      	beq.n	80019f6 <flash_program_data+0x56>
				base_of_database = (uint32_t*)((uint32_t)INITIAL_DATABASE - displacement);
 80019e6:	4b28      	ldr	r3, [pc, #160]	; (8001a88 <flash_program_data+0xe8>)
				usart_send_string((uint8_t*)"   Not available\r\n");
 80019e8:	4828      	ldr	r0, [pc, #160]	; (8001a8c <flash_program_data+0xec>)
				base_of_database = (uint32_t*)((uint32_t)INITIAL_DATABASE - displacement);
 80019ea:	6023      	str	r3, [r4, #0]
				usart_send_string((uint8_t*)"   Not available\r\n");
 80019ec:	f000 f99d 	bl	8001d2a <usart_send_string>
				displacement =+ DATABASE_SIZE;
 80019f0:	f44f 6040 	mov.w	r0, #3072	; 0xc00
				break;	//quit 'for (iter; iter < DATABASE_SIZE; iter+=4)'
 80019f4:	e7e3      	b.n	80019be <flash_program_data+0x1e>
				usart_send_string((uint8_t*)"   Ok!\r\n");
 80019f6:	4640      	mov	r0, r8
		for (iter = 0; iter < DATABASE_SIZE; iter+=4)
 80019f8:	3610      	adds	r6, #16
				usart_send_string((uint8_t*)"   Ok!\r\n");
 80019fa:	f000 f996 	bl	8001d2a <usart_send_string>
		for (iter = 0; iter < DATABASE_SIZE; iter+=4)
 80019fe:	f5b6 5f40 	cmp.w	r6, #12288	; 0x3000
 8001a02:	d1ec      	bne.n	80019de <flash_program_data+0x3e>
		}
	}
	
	/*programming flash memory*/
	//Information to user
	usart_send_string((uint8_t*)"\r\n\nProgramming flash memory...\r\n\nBase Address  Size\r\n");
 8001a04:	4822      	ldr	r0, [pc, #136]	; (8001a90 <flash_program_data+0xf0>)
 8001a06:	f000 f990 	bl	8001d2a <usart_send_string>
	uintptr_t base_of_database_num = (uintptr_t)base_of_database;	//Convert from pointer to integer
 8001a0a:	6826      	ldr	r6, [r4, #0]
	void *ptr = &str_mount;
	conv_uint32_to_8a_hex(((uint32_t)base_of_database_num), ptr);
 8001a0c:	a901      	add	r1, sp, #4
 8001a0e:	4630      	mov	r0, r6
 8001a10:	f000 f9b2 	bl	8001d78 <conv_uint32_to_8a_hex>
	usart_send_string((uint8_t*)" 0x");
 8001a14:	481f      	ldr	r0, [pc, #124]	; (8001a94 <flash_program_data+0xf4>)
 8001a16:	f000 f988 	bl	8001d2a <usart_send_string>
	usart_send_string((uint8_t*)str_mount);
 8001a1a:	a801      	add	r0, sp, #4
 8001a1c:	f000 f985 	bl	8001d2a <usart_send_string>
	usart_send_string((uint8_t*)"    3K");
 8001a20:	481d      	ldr	r0, [pc, #116]	; (8001a98 <flash_program_data+0xf8>)
 8001a22:	f000 f982 	bl	8001d2a <usart_send_string>
	flash_program((uint32_t)base_of_database_num, fl_buffer_ram, DATABASE_SIZE);
 8001a26:	f44f 6240 	mov.w	r2, #3072	; 0xc00
 8001a2a:	4629      	mov	r1, r5
 8001a2c:	4630      	mov	r0, r6
 8001a2e:	f000 fdaf 	bl	8002590 <flash_program>
	/*flash_wait_for_last_operation();
	flash_status = flash_get_status_flags();
	if(flash_status != FLASH_SR_EOP)
		return flash_status;*/

	usart_send_string((uint8_t*)"\r\n\nVerification of written data:\r\n");
 8001a32:	481a      	ldr	r0, [pc, #104]	; (8001a9c <flash_program_data+0xfc>)
 8001a34:	f000 f979 	bl	8001d2a <usart_send_string>
	//verify if correct data was written
	for (iter = 0; iter < DATABASE_SIZE; iter+=4)	//3K must be checked
	{
		if(	*(base_of_database + iter) != *((uint32_t*)(fl_buffer_ram) + iter) )
 8001a38:	6820      	ldr	r0, [r4, #0]
	for (iter = 0; iter < DATABASE_SIZE; iter+=4)	//3K must be checked
 8001a3a:	2200      	movs	r2, #0
		if(	*(base_of_database + iter) != *((uint32_t*)(fl_buffer_ram) + iter) )
 8001a3c:	f850 3022 	ldr.w	r3, [r0, r2, lsl #2]
 8001a40:	f855 1022 	ldr.w	r1, [r5, r2, lsl #2]
 8001a44:	428b      	cmp	r3, r1
 8001a46:	d006      	beq.n	8001a56 <flash_program_data+0xb6>
		{
			usart_send_string((uint8_t*)"Wrong data written into flash memory\r\n");
 8001a48:	4815      	ldr	r0, [pc, #84]	; (8001aa0 <flash_program_data+0x100>)
 8001a4a:	f000 f96e 	bl	8001d2a <usart_send_string>
			return FLASH_WRONG_DATA_WRITTEN;
 8001a4e:	2080      	movs	r0, #128	; 0x80
		base_of_database_num = (uintptr_t)base_of_database;	//Convert from pointer to integer
		flash_program((uint32_t)base_of_database_num, UNUSED_DATABASE, 10);
	}
	usart_send_string((uint8_t*)"\r\nSuccessfull!\r\n\nNow, please TURN OFF to plug the PS/2 keyboard!");
	return RESULT_OK;
}
 8001a50:	b006      	add	sp, #24
 8001a52:	e8bd 87f0 	ldmia.w	sp!, {r4, r5, r6, r7, r8, r9, sl, pc}
	for (iter = 0; iter < DATABASE_SIZE; iter+=4)	//3K must be checked
 8001a56:	3204      	adds	r2, #4
 8001a58:	f5b2 6f40 	cmp.w	r2, #3072	; 0xc00
 8001a5c:	d1ee      	bne.n	8001a3c <flash_program_data+0x9c>
	if (base_of_database_num != INITIAL_DATABASE)
 8001a5e:	4a08      	ldr	r2, [pc, #32]	; (8001a80 <flash_program_data+0xe0>)
 8001a60:	4290      	cmp	r0, r2
 8001a62:	d006      	beq.n	8001a72 <flash_program_data+0xd2>
		base_of_database += DATABASE_SIZE;	//points to former Database
 8001a64:	f500 5040 	add.w	r0, r0, #12288	; 0x3000
		flash_program((uint32_t)base_of_database_num, UNUSED_DATABASE, 10);
 8001a68:	490e      	ldr	r1, [pc, #56]	; (8001aa4 <flash_program_data+0x104>)
		base_of_database += DATABASE_SIZE;	//points to former Database
 8001a6a:	6020      	str	r0, [r4, #0]
		flash_program((uint32_t)base_of_database_num, UNUSED_DATABASE, 10);
 8001a6c:	220a      	movs	r2, #10
 8001a6e:	f000 fd8f 	bl	8002590 <flash_program>
	usart_send_string((uint8_t*)"\r\nSuccessfull!\r\n\nNow, please TURN OFF to plug the PS/2 keyboard!");
 8001a72:	480d      	ldr	r0, [pc, #52]	; (8001aa8 <flash_program_data+0x108>)
 8001a74:	f000 f959 	bl	8001d2a <usart_send_string>
	return RESULT_OK;
 8001a78:	2000      	movs	r0, #0
 8001a7a:	e7e9      	b.n	8001a50 <flash_program_data+0xb0>
 8001a7c:	2000045c 	andcs	r0, r0, ip, asr r4
 8001a80:	0803f400 	stmdaeq	r3, {sl, ip, sp, lr, pc}
 8001a84:	08004158 	stmdaeq	r0, {r3, r4, r6, r8, lr}
 8001a88:	0803e800 	stmdaeq	r3, {fp, sp, lr, pc}
 8001a8c:	080041a4 	stmdaeq	r0, {r2, r5, r7, r8, lr}
 8001a90:	080041c0 	stmdaeq	r0, {r6, r7, r8, lr}
 8001a94:	08003f56 	stmdaeq	r0, {r1, r2, r4, r6, r8, r9, sl, fp, ip, sp}
 8001a98:	08004037 	stmdaeq	r0, {r0, r1, r2, r4, r5, lr}
 8001a9c:	0800403e 	stmdaeq	r0, {r1, r2, r3, r4, r5, lr}
 8001aa0:	08004061 	stmdaeq	r0, {r0, r5, r6, lr}
 8001aa4:	20000000 	andcs	r0, r0, r0
 8001aa8:	080041f6 	stmdaeq	r0, {r1, r2, r4, r5, r6, r7, r8, lr}
 8001aac:	080041b7 	stmdaeq	r0, {r0, r1, r2, r4, r5, r7, r8, lr}

08001ab0 <flashF4_rw>:
{
 8001ab0:	b510      	push	{r4, lr}
	usart_send_string((uint8_t*)"To update the Conversion Table, please send the new file ");
 8001ab2:	4812      	ldr	r0, [pc, #72]	; (8001afc <flashF4_rw+0x4c>)
{
 8001ab4:	f5ad 6d48 	sub.w	sp, sp, #3200	; 0xc80
	usart_send_string((uint8_t*)"To update the Conversion Table, please send the new file ");
 8001ab8:	f000 f937 	bl	8001d2a <usart_send_string>
	usart_send_string((uint8_t*)"in Intel Hex format!\r\nOr turn off now.");
 8001abc:	4810      	ldr	r0, [pc, #64]	; (8001b00 <flashF4_rw+0x50>)
 8001abe:	f000 f934 	bl	8001d2a <usart_send_string>
	get_valid_intelhex_file(&str_mount[0], STRING_MOUNT_BUFFER_SIZE, &flash_buffer_ram[0]);
 8001ac2:	aa20      	add	r2, sp, #128	; 0x80
 8001ac4:	2180      	movs	r1, #128	; 0x80
 8001ac6:	4668      	mov	r0, sp
 8001ac8:	f7ff ff3c 	bl	8001944 <get_valid_intelhex_file>
	result = flash_program_data(ptr_flash_buffer_ram);
 8001acc:	a820      	add	r0, sp, #128	; 0x80
 8001ace:	f7ff ff67 	bl	80019a0 <flash_program_data>
	switch(result)
 8001ad2:	f030 0380 	bics.w	r3, r0, #128	; 0x80
	result = flash_program_data(ptr_flash_buffer_ram);
 8001ad6:	4604      	mov	r4, r0
	switch(result)
 8001ad8:	d009      	beq.n	8001aee <flashF4_rw+0x3e>
		usart_send_string((uint8_t*)"\r\nWrong value of FLASH_SR: ");
 8001ada:	480a      	ldr	r0, [pc, #40]	; (8001b04 <flashF4_rw+0x54>)
 8001adc:	f000 f925 	bl	8001d2a <usart_send_string>
		conv_uint32_to_8a_hex(result, str_mount);
 8001ae0:	4620      	mov	r0, r4
 8001ae2:	4669      	mov	r1, sp
 8001ae4:	f000 f948 	bl	8001d78 <conv_uint32_to_8a_hex>
		usart_send_string(&str_mount[0]);
 8001ae8:	4668      	mov	r0, sp
 8001aea:	f000 f91e 	bl	8001d2a <usart_send_string>
	usart_send_string((uint8_t*)"\r\n");
 8001aee:	4806      	ldr	r0, [pc, #24]	; (8001b08 <flashF4_rw+0x58>)
 8001af0:	f000 f91b 	bl	8001d2a <usart_send_string>
}
 8001af4:	4620      	mov	r0, r4
 8001af6:	f50d 6d48 	add.w	sp, sp, #3200	; 0xc80
 8001afa:	bd10      	pop	{r4, pc}
 8001afc:	08004237 	stmdaeq	r0, {r0, r1, r2, r4, r5, r9, lr}
 8001b00:	08004271 	stmdaeq	r0, {r0, r4, r5, r6, r9, lr}
 8001b04:	08004298 	stmdaeq	r0, {r3, r4, r7, r9, lr}
 8001b08:	080041bd 	stmdaeq	r0, {r0, r2, r3, r4, r5, r7, r8, lr}

08001b0c <_Z13systick_setupv>:
extern bool ps2_keyb_detected;										//Declared on ps2handl.c
extern bool update_ps2_leds, ps2numlockstate;			//Declared on msxmap.cpp


void systick_setup(void)
{
 8001b0c:	b510      	push	{r4, lr}
	//Make sure systick doesn't interrupt PS/2 protocol bitbang action
	nvic_set_priority(NVIC_SYSTICK_IRQ, 100);
 8001b0e:	2164      	movs	r1, #100	; 0x64
 8001b10:	20ff      	movs	r0, #255	; 0xff
 8001b12:	f001 f8af 	bl	8002c74 <nvic_set_priority>

	/* 72MHz / 8 => 9000000 counts per second */
	/* 9000000 / 30(ints per second) = 300000 systick reload - every 33,3ms one interrupt */
	/* SysTick interrupt every N clock pulses: set reload to N-1 */
	systick_set_reload(((rcc_apb2_frequency * 2)/30)-1);
 8001b16:	4b13      	ldr	r3, [pc, #76]	; (8001b64 <_Z13systick_setupv+0x58>)
 8001b18:	6818      	ldr	r0, [r3, #0]
 8001b1a:	231e      	movs	r3, #30
 8001b1c:	0040      	lsls	r0, r0, #1
 8001b1e:	fbb0 f0f3 	udiv	r0, r0, r3
 8001b22:	3801      	subs	r0, #1
 8001b24:	f001 f872 	bl	8002c0c <systick_set_reload>
	systick_set_clocksource(STK_CSR_CLKSOURCE_AHB);
 8001b28:	2004      	movs	r0, #4
 8001b2a:	f001 f875 	bl	8002c18 <systick_set_clocksource>
	
	systicks = 0; //systick_clear
 8001b2e:	4b0e      	ldr	r3, [pc, #56]	; (8001b68 <_Z13systick_setupv+0x5c>)
 8001b30:	2400      	movs	r4, #0
 8001b32:	601c      	str	r4, [r3, #0]
	ticks = 0;
 8001b34:	4b0d      	ldr	r3, [pc, #52]	; (8001b6c <_Z13systick_setupv+0x60>)
 8001b36:	601c      	str	r4, [r3, #0]
	ticks_keys = false;
 8001b38:	4b0d      	ldr	r3, [pc, #52]	; (8001b70 <_Z13systick_setupv+0x64>)
 8001b3a:	701c      	strb	r4, [r3, #0]

	/* Start counting. */
	systick_counter_enable();
 8001b3c:	f001 f884 	bl	8002c48 <systick_counter_enable>

	systick_interrupt_enable();
 8001b40:	f001 f874 	bl	8002c2c <systick_interrupt_enable>

	// GPIO C13 is the onboard LED
	gpio_mode_setup(GPIOC, GPIO_MODE_OUTPUT, GPIO_PUPD_NONE, GPIO13);
 8001b44:	4622      	mov	r2, r4
 8001b46:	480b      	ldr	r0, [pc, #44]	; (8001b74 <_Z13systick_setupv+0x68>)
 8001b48:	f44f 5300 	mov.w	r3, #8192	; 0x2000
 8001b4c:	2101      	movs	r1, #1
 8001b4e:	f000 fd48 	bl	80025e2 <gpio_mode_setup>
	gpio_set_output_options(GPIOC, GPIO_OTYPE_OD, GPIO_OSPEED_100MHZ, GPIO13);
	
	// Enable the led. It is active LOW, but the instruction was omitted, since 0 is the default.
}
 8001b52:	e8bd 4010 	ldmia.w	sp!, {r4, lr}
	gpio_set_output_options(GPIOC, GPIO_OTYPE_OD, GPIO_OSPEED_100MHZ, GPIO13);
 8001b56:	4807      	ldr	r0, [pc, #28]	; (8001b74 <_Z13systick_setupv+0x68>)
 8001b58:	f44f 5300 	mov.w	r3, #8192	; 0x2000
 8001b5c:	2203      	movs	r2, #3
 8001b5e:	2101      	movs	r1, #1
 8001b60:	f000 bd5f 	b.w	8002622 <gpio_set_output_options>
 8001b64:	20000014 	andcs	r0, r0, r4, lsl r0
 8001b68:	20000558 	andcs	r0, r0, r8, asr r5
 8001b6c:	2000055c 	andcs	r0, r0, ip, asr r5
 8001b70:	20000560 	andcs	r0, r0, r0, ror #10
 8001b74:	40020800 	andmi	r0, r2, r0, lsl #16

08001b78 <sys_tick_handler>:
/*************************************************************************************************/
/******************************************* ISR's ***********************************************/
/*************************************************************************************************/
/*************************************************************************************************/
void sys_tick_handler(void) // f=30Hz (Each 33,33ms)
{
 8001b78:	b573      	push	{r0, r1, r4, r5, r6, lr}
	bool kana_state, caps_state;
	static bool kana_former, caps_former;

	iwdg_reset();	//Prevent from reset
 8001b7a:	f000 fdd1 	bl	8002720 <iwdg_reset>

	systicks++;
 8001b7e:	4a2a      	ldr	r2, [pc, #168]	; (8001c28 <sys_tick_handler+0xb0>)

	ticks++;
 8001b80:	4c2a      	ldr	r4, [pc, #168]	; (8001c2c <sys_tick_handler+0xb4>)
	systicks++;
 8001b82:	6813      	ldr	r3, [r2, #0]
	if(ps2_keyb_detected==true && (ticks>=(10*3)))
 8001b84:	4d2a      	ldr	r5, [pc, #168]	; (8001c30 <sys_tick_handler+0xb8>)
	systicks++;
 8001b86:	3301      	adds	r3, #1
 8001b88:	6013      	str	r3, [r2, #0]
	ticks++;
 8001b8a:	6823      	ldr	r3, [r4, #0]
	if(ps2_keyb_detected==true && (ticks>=(10*3)))
 8001b8c:	782e      	ldrb	r6, [r5, #0]
	ticks++;
 8001b8e:	3301      	adds	r3, #1
 8001b90:	6023      	str	r3, [r4, #0]
	if(ps2_keyb_detected==true && (ticks>=(10*3)))
 8001b92:	6823      	ldr	r3, [r4, #0]
 8001b94:	2e00      	cmp	r6, #0
 8001b96:	d03e      	beq.n	8001c16 <sys_tick_handler+0x9e>
 8001b98:	2b1d      	cmp	r3, #29
 8001b9a:	d825      	bhi.n	8001be8 <sys_tick_handler+0x70>
	}

	if (ps2_keyb_detected == true)
	{
		//Queue keys processing:
		ticks_keys = !ticks_keys;	//Toggle ticks_keys
 8001b9c:	4b25      	ldr	r3, [pc, #148]	; (8001c34 <sys_tick_handler+0xbc>)
 8001b9e:	781a      	ldrb	r2, [r3, #0]
 8001ba0:	f082 0201 	eor.w	r2, r2, #1
 8001ba4:	701a      	strb	r2, [r3, #0]
		if (ticks_keys)
 8001ba6:	781b      	ldrb	r3, [r3, #0]
 8001ba8:	b343      	cbz	r3, 8001bfc <sys_tick_handler+0x84>
		{
			msxmap objeto;
			objeto.msxqueuekeys();
 8001baa:	a801      	add	r0, sp, #4
 8001bac:	f7fe fd44 	bl	8000638 <_ZN6msxmap12msxqueuekeysEv>

			//Check MSX CAPS and Kana status update
			caps_state = gpio_get(CAPSLOCK_port, CAPSLOCK_pin_id);
 8001bb0:	2110      	movs	r1, #16
 8001bb2:	4821      	ldr	r0, [pc, #132]	; (8001c38 <sys_tick_handler+0xc0>)
 8001bb4:	f000 fcfe 	bl	80025b4 <gpio_get>
			kana_state = gpio_get(KANA_port, KANA_pin_id);
 8001bb8:	2140      	movs	r1, #64	; 0x40
			caps_state = gpio_get(CAPSLOCK_port, CAPSLOCK_pin_id);
 8001bba:	1e04      	subs	r4, r0, #0
			kana_state = gpio_get(KANA_port, KANA_pin_id);
 8001bbc:	481e      	ldr	r0, [pc, #120]	; (8001c38 <sys_tick_handler+0xc0>)
			caps_state = gpio_get(CAPSLOCK_port, CAPSLOCK_pin_id);
 8001bbe:	bf18      	it	ne
 8001bc0:	2401      	movne	r4, #1
			kana_state = gpio_get(KANA_port, KANA_pin_id);
 8001bc2:	f000 fcf7 	bl	80025b4 <gpio_get>
			if ( (caps_state != caps_former) || (kana_state != kana_former) )
 8001bc6:	4a1d      	ldr	r2, [pc, #116]	; (8001c3c <sys_tick_handler+0xc4>)
 8001bc8:	7813      	ldrb	r3, [r2, #0]
			kana_state = gpio_get(KANA_port, KANA_pin_id);
 8001bca:	3800      	subs	r0, #0
 8001bcc:	bf18      	it	ne
 8001bce:	2001      	movne	r0, #1
			if ( (caps_state != caps_former) || (kana_state != kana_former) )
 8001bd0:	42a3      	cmp	r3, r4
 8001bd2:	4b1b      	ldr	r3, [pc, #108]	; (8001c40 <sys_tick_handler+0xc8>)
 8001bd4:	d102      	bne.n	8001bdc <sys_tick_handler+0x64>
 8001bd6:	7819      	ldrb	r1, [r3, #0]
 8001bd8:	4281      	cmp	r1, r0
 8001bda:	d002      	beq.n	8001be2 <sys_tick_handler+0x6a>
				update_ps2_leds = true;
 8001bdc:	4919      	ldr	r1, [pc, #100]	; (8001c44 <sys_tick_handler+0xcc>)
 8001bde:	2501      	movs	r5, #1
 8001be0:	700d      	strb	r5, [r1, #0]
			caps_former = caps_state;
 8001be2:	7014      	strb	r4, [r2, #0]
			kana_former = kana_state;
 8001be4:	7018      	strb	r0, [r3, #0]
 8001be6:	e009      	b.n	8001bfc <sys_tick_handler+0x84>
		gpio_toggle(GPIOC, GPIO13);
 8001be8:	4817      	ldr	r0, [pc, #92]	; (8001c48 <sys_tick_handler+0xd0>)
 8001bea:	f44f 5100 	mov.w	r1, #8192	; 0x2000
 8001bee:	f000 fce4 	bl	80025ba <gpio_toggle>
		ticks=0;
 8001bf2:	2300      	movs	r3, #0
 8001bf4:	6023      	str	r3, [r4, #0]
	if (ps2_keyb_detected == true)
 8001bf6:	782b      	ldrb	r3, [r5, #0]
 8001bf8:	2b00      	cmp	r3, #0
 8001bfa:	d1cf      	bne.n	8001b9c <sys_tick_handler+0x24>
		}
	}

	if(fail_count!=last_ps2_fails)
 8001bfc:	4813      	ldr	r0, [pc, #76]	; (8001c4c <sys_tick_handler+0xd4>)
 8001bfe:	4914      	ldr	r1, [pc, #80]	; (8001c50 <sys_tick_handler+0xd8>)
 8001c00:	8802      	ldrh	r2, [r0, #0]
 8001c02:	880b      	ldrh	r3, [r1, #0]
 8001c04:	b292      	uxth	r2, r2
 8001c06:	b29b      	uxth	r3, r3
 8001c08:	429a      	cmp	r2, r3
		usart_send_string((uint8_t*)"PS/2 failure count: ");
		conv_uint8_to_2a_hex(fail_count, &mountstring[0]);
		usart_send_string(&mountstring[0]);
		usart_send_string((uint8_t*)"\n");*/

		last_ps2_fails=fail_count;
 8001c0a:	bf1e      	ittt	ne
 8001c0c:	8803      	ldrhne	r3, [r0, #0]
 8001c0e:	b29b      	uxthne	r3, r3
 8001c10:	800b      	strhne	r3, [r1, #0]
	}
}
 8001c12:	b002      	add	sp, #8
 8001c14:	bd70      	pop	{r4, r5, r6, pc}
	} else if (ps2_keyb_detected==false && ticks >= 7)
 8001c16:	2b06      	cmp	r3, #6
 8001c18:	d9f0      	bls.n	8001bfc <sys_tick_handler+0x84>
		gpio_toggle(GPIOC, GPIO13);
 8001c1a:	480b      	ldr	r0, [pc, #44]	; (8001c48 <sys_tick_handler+0xd0>)
 8001c1c:	f44f 5100 	mov.w	r1, #8192	; 0x2000
 8001c20:	f000 fccb 	bl	80025ba <gpio_toggle>
		ticks=0;
 8001c24:	6026      	str	r6, [r4, #0]
 8001c26:	e7e6      	b.n	8001bf6 <sys_tick_handler+0x7e>
 8001c28:	20000558 	andcs	r0, r0, r8, asr r5
 8001c2c:	2000055c 	andcs	r0, r0, ip, asr r5
 8001c30:	20000501 	andcs	r0, r0, r1, lsl #10
 8001c34:	20000560 	andcs	r0, r0, r0, ror #10
 8001c38:	40020400 	andmi	r0, r2, r0, lsl #8
 8001c3c:	20000550 	andcs	r0, r0, r0, asr r5
 8001c40:	20000551 	andcs	r0, r0, r1, asr r5
 8001c44:	200004ac 	andcs	r0, r0, ip, lsr #9
 8001c48:	40020800 	andmi	r0, r2, r0, lsl #16
 8001c4c:	20000552 	andcs	r0, r0, r2, asr r5
 8001c50:	20000554 	andcs	r0, r0, r4, asr r5

08001c54 <ring_tx_put_ch>:
//It is used to put a char in the ring buffer, both TX and RX.
//It returns number of chars are in the buffer of 0xFFFF when there was no room to add this char.
static uint16_t ring_put_ch(struct ring *ring, uint8_t ch)
{
	uint16_t i, i_next;
	i = ring->put_ptr;				//i is the original position
 8001c54:	4a0d      	ldr	r2, [pc, #52]	; (8001c8c <ring_tx_put_ch+0x38>)
 8001c56:	8891      	ldrh	r1, [r2, #4]

//Used as an internal function.
//It is used to put a char in the ring TX buffer, as it will initiate TX if the first one is put on buffer.
//It returns number of chars are in the buffer of 0xFFFF when there was no room to add this char.
static uint16_t ring_tx_put_ch(uint8_t ch)
{
 8001c58:	b510      	push	{r4, lr}
	i_next = i + 1;						//i_next is the next position of i
 8001c5a:	1c4b      	adds	r3, r1, #1
	if(i_next != ring->get_ptr)
 8001c5c:	88d4      	ldrh	r4, [r2, #6]
	i_next = i_next & (uint16_t)(SERIAL_RING_BUFFER_SIZE - 1); //if(i_next >= (uint16_t)SERIAL_RING_BUFFER_SIZE) i_next = 0;
 8001c5e:	b2db      	uxtb	r3, r3
	if(i_next != ring->get_ptr)
 8001c60:	429c      	cmp	r4, r3
 8001c62:	d010      	beq.n	8001c86 <ring_tx_put_ch+0x32>
		ring->data[i] = ch;			//saves in the put_ptr position 
 8001c64:	6814      	ldr	r4, [r2, #0]
 8001c66:	5460      	strb	r0, [r4, r1]
		return (uint16_t)(SERIAL_RING_BUFFER_SIZE - ring->get_ptr + i_next) & (uint16_t)(SERIAL_RING_BUFFER_SIZE - 1);
 8001c68:	88d0      	ldrh	r0, [r2, #6]
		ring->put_ptr = i_next;	//now put_ptr points to the next position of i
 8001c6a:	8093      	strh	r3, [r2, #4]
		return (uint16_t)(SERIAL_RING_BUFFER_SIZE - ring->get_ptr + i_next) & (uint16_t)(SERIAL_RING_BUFFER_SIZE - 1);
 8001c6c:	1a18      	subs	r0, r3, r0
 8001c6e:	b2c0      	uxtb	r0, r0
	uint16_t result;

	result = ring_put_ch(&tx_ring, ch);
	if (result == 1)
 8001c70:	2801      	cmp	r0, #1
 8001c72:	d107      	bne.n	8001c84 <ring_tx_put_ch+0x30>
	{
		// Enable Transmit request
		USART_CR1(USART_PORT) |= USART_CR1_TXEIE;
 8001c74:	f04f 2240 	mov.w	r2, #1073758208	; 0x40004000
 8001c78:	f8d2 340c 	ldr.w	r3, [r2, #1036]	; 0x40c
 8001c7c:	f043 0380 	orr.w	r3, r3, #128	; 0x80
 8001c80:	f8c2 340c 	str.w	r3, [r2, #1036]	; 0x40c
	}
	return result;
}
 8001c84:	bd10      	pop	{r4, pc}
		return 0xFFFF;
 8001c86:	f64f 70ff 	movw	r0, #65535	; 0xffff
 8001c8a:	e7fb      	b.n	8001c84 <ring_tx_put_ch+0x30>
 8001c8c:	2000066c 	andcs	r0, r0, ip, ror #12

08001c90 <serial_available_get_char>:
//Used as an internal function.
//Returns true if there is a char available to read in the ring (both TX and RX) or false if not.
static bool ring_avail_get_ch(struct ring *ring)
{
	bool output;
	output = (ring->get_ptr != ring->put_ptr) ? true : false;
 8001c90:	4b03      	ldr	r3, [pc, #12]	; (8001ca0 <serial_available_get_char+0x10>)
 8001c92:	88d8      	ldrh	r0, [r3, #6]
 8001c94:	889b      	ldrh	r3, [r3, #4]
// If there is an available char in USART_PORT RX ring, it returns true.
bool serial_available_get_char(void)
{
	bool result = (ring_avail_get_ch(&rx_ring)) ? true : false;
	return result;
}
 8001c96:	1ac0      	subs	r0, r0, r3
 8001c98:	bf18      	it	ne
 8001c9a:	2001      	movne	r0, #1
 8001c9c:	4770      	bx	lr
 8001c9e:	bf00      	nop
 8001ca0:	20000564 	andcs	r0, r0, r4, ror #10

08001ca4 <serial_get_char>:
	uint16_t i = ring->get_ptr;
 8001ca4:	4917      	ldr	r1, [pc, #92]	; (8001d04 <serial_get_char+0x60>)
 8001ca6:	88ca      	ldrh	r2, [r1, #6]
	if(i == ring->put_ptr)
 8001ca8:	888b      	ldrh	r3, [r1, #4]
 8001caa:	429a      	cmp	r2, r3
 8001cac:	d01f      	beq.n	8001cee <serial_get_char+0x4a>
	int16_t result = (int16_t)ring->data[i];
 8001cae:	6808      	ldr	r0, [r1, #0]
	*qty_in_buffer = (SERIAL_RING_BUFFER_SIZE - i + ring->put_ptr) & (SERIAL_RING_BUFFER_SIZE - 1);
 8001cb0:	1a9b      	subs	r3, r3, r2
	int16_t result = (int16_t)ring->data[i];
 8001cb2:	5c80      	ldrb	r0, [r0, r2]
	i++;
 8001cb4:	3201      	adds	r2, #1
	ring->get_ptr = i & (uint16_t)(SERIAL_RING_BUFFER_SIZE - 1); //if(i >= (uint16_t)SERIAL_RING_BUFFER_SIZE)	i = 0;
 8001cb6:	b2d2      	uxtb	r2, r2
 8001cb8:	b2db      	uxtb	r3, r3
 8001cba:	80ca      	strh	r2, [r1, #6]
	if (enable_xon_xoff)
 8001cbc:	4a12      	ldr	r2, [pc, #72]	; (8001d08 <serial_get_char+0x64>)
 8001cbe:	7812      	ldrb	r2, [r2, #0]
 8001cc0:	b19a      	cbz	r2, 8001cea <serial_get_char+0x46>
		if (qty_in_buffer >= (uint16_t)X_OFF_TRIGGER)
 8001cc2:	2bbf      	cmp	r3, #191	; 0xbf
 8001cc4:	d917      	bls.n	8001cf6 <serial_get_char+0x52>
			xon_condition = false;
 8001cc6:	4b11      	ldr	r3, [pc, #68]	; (8001d0c <serial_get_char+0x68>)
 8001cc8:	2200      	movs	r2, #0
 8001cca:	701a      	strb	r2, [r3, #0]
			if (!xoff_condition)										//To send X_OFF only once
 8001ccc:	4a10      	ldr	r2, [pc, #64]	; (8001d10 <serial_get_char+0x6c>)
			if (!xon_condition)		//To send X_ON only once
 8001cce:	7813      	ldrb	r3, [r2, #0]
 8001cd0:	b95b      	cbnz	r3, 8001cea <serial_get_char+0x46>
				xon_condition = true;
 8001cd2:	2301      	movs	r3, #1
 8001cd4:	7013      	strb	r3, [r2, #0]
				xonoff_sendnow = true;
 8001cd6:	4a0f      	ldr	r2, [pc, #60]	; (8001d14 <serial_get_char+0x70>)
 8001cd8:	7013      	strb	r3, [r2, #0]
				USART_CR1(USART_PORT) |= USART_CR1_TXEIE; //Force Enable transmission request
 8001cda:	f04f 2240 	mov.w	r2, #1073758208	; 0x40004000
 8001cde:	f8d2 340c 	ldr.w	r3, [r2, #1036]	; 0x40c
 8001ce2:	f043 0380 	orr.w	r3, r3, #128	; 0x80
 8001ce6:	f8c2 340c 	str.w	r3, [r2, #1036]	; 0x40c
//You MUST use the above function "serial_available_get_char" BEFORE this one,
//in order to verify a valid available reading by this function.
uint8_t serial_get_char(void)
{
	return (uint8_t)ring_rx_get_ch();
}
 8001cea:	b2c0      	uxtb	r0, r0
 8001cec:	4770      	bx	lr
	uint16_t qty_in_buffer = 0; // I have to put it initialized to avoid warning about the line after else if
 8001cee:	2300      	movs	r3, #0
		return -1;
 8001cf0:	f04f 30ff 	mov.w	r0, #4294967295	; 0xffffffff
 8001cf4:	e7e2      	b.n	8001cbc <serial_get_char+0x18>
		else if (qty_in_buffer <= X_ON_TRIGGER)
 8001cf6:	2b80      	cmp	r3, #128	; 0x80
 8001cf8:	d8f7      	bhi.n	8001cea <serial_get_char+0x46>
			xoff_condition = false;
 8001cfa:	4b05      	ldr	r3, [pc, #20]	; (8001d10 <serial_get_char+0x6c>)
 8001cfc:	2200      	movs	r2, #0
 8001cfe:	701a      	strb	r2, [r3, #0]
			if (!xon_condition)		//To send X_ON only once
 8001d00:	4a02      	ldr	r2, [pc, #8]	; (8001d0c <serial_get_char+0x68>)
 8001d02:	e7e4      	b.n	8001cce <serial_get_char+0x2a>
 8001d04:	20000564 	andcs	r0, r0, r4, ror #10
 8001d08:	2000000a 	andcs	r0, r0, sl
 8001d0c:	2000000b 	andcs	r0, r0, fp
 8001d10:	20000774 	andcs	r0, r0, r4, ror r7
 8001d14:	20000775 	andcs	r0, r0, r5, ror r7

08001d18 <serial_put_char>:

//Ready to be used outside this module.
// Put a char (uint8_t) on serial buffer.
// It returns true if there was room to put this on USART_PORT TX buffer.
bool serial_put_char(uint8_t ch)
{
 8001d18:	b508      	push	{r3, lr}
	/* Put char in tx_ring. */
	bool result = ( ring_tx_put_ch(ch) != 0xFFFF ) ? true : false;
 8001d1a:	f7ff ff9b 	bl	8001c54 <ring_tx_put_ch>
	return result;
}
 8001d1e:	f64f 73ff 	movw	r3, #65535	; 0xffff
 8001d22:	1ac0      	subs	r0, r0, r3
 8001d24:	bf18      	it	ne
 8001d26:	2001      	movne	r0, #1
 8001d28:	bd08      	pop	{r3, pc}

08001d2a <usart_send_string>:
//Ready to be used outside this module.
// Put an ASCIIZ (uint8_t) string on serial buffer.
// No return  and no blocking function if there is enough space on USART_PORT TX buffer, otherwise,
// wait until buffer is filled.
void usart_send_string(uint8_t *string)
{
 8001d2a:	b538      	push	{r3, r4, r5, lr}
 8001d2c:	4605      	mov	r5, r0
	uint16_t iter = 0;
 8001d2e:	2400      	movs	r4, #0
	do
	{	//usart_send_blocking(usart, string[iter++]);
		while (!serial_put_char(string[iter]))
 8001d30:	5d28      	ldrb	r0, [r5, r4]
 8001d32:	f7ff fff1 	bl	8001d18 <serial_put_char>
 8001d36:	b130      	cbz	r0, 8001d46 <usart_send_string+0x1c>
		{
			__asm("nop");
		}
		iter++;	//points to next char on the string
 8001d38:	3401      	adds	r4, #1
 8001d3a:	b2a4      	uxth	r4, r4
	}	while(string[iter] != 0 && iter < 128);
 8001d3c:	5d2b      	ldrb	r3, [r5, r4]
 8001d3e:	b10b      	cbz	r3, 8001d44 <usart_send_string+0x1a>
 8001d40:	2c7f      	cmp	r4, #127	; 0x7f
 8001d42:	d9f5      	bls.n	8001d30 <usart_send_string+0x6>
}
 8001d44:	bd38      	pop	{r3, r4, r5, pc}
			__asm("nop");
 8001d46:	bf00      	nop
 8001d48:	e7f2      	b.n	8001d30 <usart_send_string+0x6>

08001d4a <conv_2a_hex_to_uint8>:
// It returns and no blocking function if there is enough space on USART_PORT TX buffer, otherwise,
uint8_t conv_2a_hex_to_uint8(uint8_t *instring, int16_t i)
{
	uint8_t binuint8, ch;

	ch = instring[i];// & 0x5F; //to capital letter
 8001d4a:	5c43      	ldrb	r3, [r0, r1]
	binuint8 = (ch > ('A'-1) && ch < ('F'+1)) ?
						 (ch-('A'-10)) : (ch-'0'); //55 = "A"0x41-10; 48="0"0x30
	binuint8 <<= 4;
	ch = instring[i+1];// & 0x5F; //to capital letter
 8001d4c:	4408      	add	r0, r1
	binuint8 = (ch > ('A'-1) && ch < ('F'+1)) ?
 8001d4e:	f1a3 0241 	sub.w	r2, r3, #65	; 0x41
	ch = instring[i+1];// & 0x5F; //to capital letter
 8001d52:	7840      	ldrb	r0, [r0, #1]
	binuint8 = (ch > ('A'-1) && ch < ('F'+1)) ?
 8001d54:	2a05      	cmp	r2, #5
 8001d56:	bf98      	it	ls
 8001d58:	3b37      	subls	r3, #55	; 0x37
	binuint8 += (ch > ('A'-1) && ch < ('F'+1)) ?
 8001d5a:	f1a0 0241 	sub.w	r2, r0, #65	; 0x41
	binuint8 = (ch > ('A'-1) && ch < ('F'+1)) ?
 8001d5e:	bf88      	it	hi
 8001d60:	3b30      	subhi	r3, #48	; 0x30
 8001d62:	b2db      	uxtb	r3, r3
	binuint8 += (ch > ('A'-1) && ch < ('F'+1)) ?
 8001d64:	2a05      	cmp	r2, #5
 8001d66:	bf94      	ite	ls
 8001d68:	3837      	subls	r0, #55	; 0x37
 8001d6a:	3830      	subhi	r0, #48	; 0x30
	binuint8 <<= 4;
 8001d6c:	011b      	lsls	r3, r3, #4
 8001d6e:	b2db      	uxtb	r3, r3
	binuint8 += (ch > ('A'-1) && ch < ('F'+1)) ?
 8001d70:	b2c0      	uxtb	r0, r0
 8001d72:	4418      	add	r0, r3
							(ch-('A'-10)) : (ch-'0'); //55 = "A"0x41-10; 48="0"0x30
	return binuint8;
}
 8001d74:	b2c0      	uxtb	r0, r0
 8001d76:	4770      	bx	lr

08001d78 <conv_uint32_to_8a_hex>:
{
	uint8_t iter;

	/*end of string*/
	outstring += 8;
	*(outstring--) = 0;
 8001d78:	460b      	mov	r3, r1
 8001d7a:	2200      	movs	r2, #0
{
 8001d7c:	b510      	push	{r4, lr}
	*(outstring--) = 0;
 8001d7e:	f803 2f08 	strb.w	r2, [r3, #8]!

	for(iter=0; iter<8; iter++)
	{
		*(outstring--) = (((value&0xf) > 0x9) ? (0x40 + ((value&0xf) - 0x9)) : (0x30 | (value&0xf)));
 8001d82:	f000 040f 	and.w	r4, r0, #15
 8001d86:	4622      	mov	r2, r4
 8001d88:	2c09      	cmp	r4, #9
 8001d8a:	bf8c      	ite	hi
 8001d8c:	3237      	addhi	r2, #55	; 0x37
 8001d8e:	f042 0230 	orrls.w	r2, r2, #48	; 0x30
 8001d92:	f803 2d01 	strb.w	r2, [r3, #-1]!
	for(iter=0; iter<8; iter++)
 8001d96:	428b      	cmp	r3, r1
		value >>= 4;
 8001d98:	ea4f 1010 	mov.w	r0, r0, lsr #4
	for(iter=0; iter<8; iter++)
 8001d9c:	d1f1      	bne.n	8001d82 <conv_uint32_to_8a_hex+0xa>
	}
}
 8001d9e:	bd10      	pop	{r4, pc}

08001da0 <conv_uint8_to_2a_hex>:
{
	uint8_t iter;

	/*end of string*/
	outstring += 2;
	*(outstring--) = 0;
 8001da0:	f000 020f 	and.w	r2, r0, #15
 8001da4:	2300      	movs	r3, #0

	for(iter=0; iter<2; iter++)
	{
		*(outstring--) = (((value&0xf) > 0x9) ? (0x40 + ((value&0xf) - 0x9)) : (0x30 | (value&0xf)));
 8001da6:	2a09      	cmp	r2, #9
	*(outstring--) = 0;
 8001da8:	708b      	strb	r3, [r1, #2]
		*(outstring--) = (((value&0xf) > 0x9) ? (0x40 + ((value&0xf) - 0x9)) : (0x30 | (value&0xf)));
 8001daa:	4613      	mov	r3, r2
 8001dac:	bf8c      	ite	hi
 8001dae:	3337      	addhi	r3, #55	; 0x37
 8001db0:	f042 0330 	orrls.w	r3, r2, #48	; 0x30
 8001db4:	704b      	strb	r3, [r1, #1]
 8001db6:	289f      	cmp	r0, #159	; 0x9f
		value >>= 4;
 8001db8:	ea4f 1310 	mov.w	r3, r0, lsr #4
		*(outstring--) = (((value&0xf) > 0x9) ? (0x40 + ((value&0xf) - 0x9)) : (0x30 | (value&0xf)));
 8001dbc:	bf94      	ite	ls
 8001dbe:	f043 0330 	orrls.w	r3, r3, #48	; 0x30
 8001dc2:	3337      	addhi	r3, #55	; 0x37
 8001dc4:	700b      	strb	r3, [r1, #0]
	}
}
 8001dc6:	4770      	bx	lr

08001dc8 <serial_setup>:


//Ready to be used outside this module.
// Setup serial used in main.
void serial_setup(void)
{
 8001dc8:	b510      	push	{r4, lr}
	// Enable clocks for GPIO port A (for GPIO_USART_PORT_TX in main) and USART_PORT.
 	rcc_periph_clock_enable(RCC_GPIOA);
 8001dca:	f44f 60c0 	mov.w	r0, #1536	; 0x600
 8001dce:	f000 fcaf 	bl	8002730 <rcc_periph_clock_enable>
	gpio_mode_setup(GPIOA, GPIO_MODE_AF, GPIO_PUPD_NONE, GPIO9 | GPIO10);
	gpio_set_af(GPIOA, GPIO_AF7, GPIO9 | GPIO10);
#endif

#if USART_PORT == USART2
 	rcc_periph_clock_enable(RCC_USART2);
 8001dd2:	f640 0011 	movw	r0, #2065	; 0x811
 8001dd6:	f000 fcab 	bl	8002730 <rcc_periph_clock_enable>
	// Setup GPIO pin GPIO_USART_PORT_RE_TX on GPIO port A for transmit.
	gpio_mode_setup(GPIOA, GPIO_MODE_AF, GPIO_PUPD_NONE, GPIO2 | GPIO3);
 8001dda:	230c      	movs	r3, #12
 8001ddc:	4824      	ldr	r0, [pc, #144]	; (8001e70 <serial_setup+0xa8>)
 8001dde:	2200      	movs	r2, #0
 8001de0:	2102      	movs	r1, #2
 8001de2:	f000 fbfe 	bl	80025e2 <gpio_mode_setup>
	gpio_set_af(GPIOA, GPIO_AF7, GPIO2 | GPIO3);
 8001de6:	2107      	movs	r1, #7
 8001de8:	4821      	ldr	r0, [pc, #132]	; (8001e70 <serial_setup+0xa8>)
 8001dea:	220c      	movs	r2, #12
 8001dec:	f000 fc34 	bl	8002658 <gpio_set_af>
	ring->data = buf;
 8001df0:	4b20      	ldr	r3, [pc, #128]	; (8001e74 <serial_setup+0xac>)
 8001df2:	4a21      	ldr	r2, [pc, #132]	; (8001e78 <serial_setup+0xb0>)
 8001df4:	601a      	str	r2, [r3, #0]
	ring->put_ptr = 0;
 8001df6:	2400      	movs	r4, #0
	ring->data = buf;
 8001df8:	4a20      	ldr	r2, [pc, #128]	; (8001e7c <serial_setup+0xb4>)
	ring->put_ptr = 0;
 8001dfa:	605c      	str	r4, [r3, #4]
	ring->data = buf;
 8001dfc:	4b20      	ldr	r3, [pc, #128]	; (8001e80 <serial_setup+0xb8>)
	// Enable the USART_PORT interrupt.
	nvic_enable_irq(NVIC_USART1_IRQ);
#endif
#if USART_PORT == USART2
	// Enable the USART_PORT interrupt.
	nvic_enable_irq(NVIC_USART2_IRQ);
 8001dfe:	2026      	movs	r0, #38	; 0x26
	ring->put_ptr = 0;
 8001e00:	e9c3 2400 	strd	r2, r4, [r3]
	nvic_enable_irq(NVIC_USART2_IRQ);
 8001e04:	f000 ff28 	bl	8002c58 <nvic_enable_irq>
#endif


	// Setup UART parameters.
	usart_set_databits(USART_PORT, 8);
 8001e08:	481e      	ldr	r0, [pc, #120]	; (8001e84 <serial_setup+0xbc>)
 8001e0a:	2108      	movs	r1, #8
 8001e0c:	f000 fe7e 	bl	8002b0c <usart_set_databits>
		if (bits == 8)
		{	USART_CR1(usart) &= ~USART_CR1_M; // 8 data bits}
		else
		{	USART_CR1(usart) |= USART_CR1_M;  // 9 data bits}
	} */
	usart_set_stopbits(USART_PORT, USART_STOPBITS_1);
 8001e10:	4621      	mov	r1, r4
 8001e12:	481c      	ldr	r0, [pc, #112]	; (8001e84 <serial_setup+0xbc>)
 8001e14:	f000 fe83 	bl	8002b1e <usart_set_stopbits>

	reg32 = USART_CR2(usart);
	reg32 = (reg32 & ~USART_CR2_STOPBITS_MASK) | stopbits;
	USART_CR2(usart) = reg32;
	}*/
	usart_set_baudrate(USART_PORT, 38400);
 8001e18:	481a      	ldr	r0, [pc, #104]	; (8001e84 <serial_setup+0xbc>)
 8001e1a:	f44f 4116 	mov.w	r1, #38400	; 0x9600
 8001e1e:	f000 fe5f 	bl	8002ae0 <usart_set_baudrate>
	usart_set_parity(USART_PORT, USART_PARITY_NONE);
 8001e22:	4621      	mov	r1, r4
 8001e24:	4817      	ldr	r0, [pc, #92]	; (8001e84 <serial_setup+0xbc>)
 8001e26:	f000 fe80 	bl	8002b2a <usart_set_parity>

	reg32 = USART_CR1(usart);
	reg32 = (reg32 & ~USART_PARITY_MASK) | parity;
	USART_CR1(usart) = reg32;
	}*/
	usart_set_flow_control(USART_PORT, USART_FLOWCONTROL_NONE);
 8001e2a:	4621      	mov	r1, r4
 8001e2c:	4815      	ldr	r0, [pc, #84]	; (8001e84 <serial_setup+0xbc>)
	reg32 = (reg32 & ~USART_MODE_MASK) | mode;
	USART_CR1(usart) = reg32;
	}*/

	// Enable USART_PORT Transmit & Receive interrupts.
	USART_CR1(USART_PORT) |= (USART_CR1_RXNEIE | USART_CR1_TXEIE);
 8001e2e:	f04f 2440 	mov.w	r4, #1073758208	; 0x40004000
	usart_set_flow_control(USART_PORT, USART_FLOWCONTROL_NONE);
 8001e32:	f000 fe86 	bl	8002b42 <usart_set_flow_control>
	usart_set_mode(USART_PORT, USART_MODE_TX_RX);
 8001e36:	4813      	ldr	r0, [pc, #76]	; (8001e84 <serial_setup+0xbc>)
 8001e38:	210c      	movs	r1, #12
 8001e3a:	f000 fe7c 	bl	8002b36 <usart_set_mode>
	USART_CR1(USART_PORT) |= (USART_CR1_RXNEIE | USART_CR1_TXEIE);
 8001e3e:	f8d4 340c 	ldr.w	r3, [r4, #1036]	; 0x40c
 8001e42:	f043 03a0 	orr.w	r3, r3, #160	; 0xa0
 8001e46:	f8c4 340c 	str.w	r3, [r4, #1036]	; 0x40c
	// ORE: Overrun error: USART_SR_ORE					(1 << 3)
	// NE: Noise error flag: USART_SR_NE				(1 << 2)
	// FE: Framing error: USART_SR_FE						(1 << 1)
	// PE: Parity error: USART_SR_PE						(1 << 0)
	//A read to the USART_SR register followed by a read to the USART_DR register
	if 	((USART_SR(USART_PORT) && 0B11111) != 0)	//(USART_SR_IDLE | USART_SR_ORE | USART_SR_NE | USART_SR_NE | USART_SR_PE)
 8001e4a:	f8d4 3400 	ldr.w	r3, [r4, #1024]	; 0x400
 8001e4e:	b10b      	cbz	r3, 8001e54 <serial_setup+0x8c>
	{
		uint32_t reg32 = USART_DR(USART_PORT);
 8001e50:	f8d4 3404 	ldr.w	r3, [r4, #1028]	; 0x404
		reg32 &= 0xFFFFFFFF;	//Only to avoid the warning of unused variable 'reg32'
	}

	// Enable the USART.
	usart_enable(USART_PORT);	//USART_CR1(usart) |= USART_CR1_UE;
 8001e54:	480b      	ldr	r0, [pc, #44]	; (8001e84 <serial_setup+0xbc>)
 8001e56:	f000 fe7a 	bl	8002b4e <usart_enable>
	uint32_t reg32 = USART_CR1(USART_PORT);
 8001e5a:	f8d4 340c 	ldr.w	r3, [r4, #1036]	; 0x40c
	reg32 &= 0xFFFFFFFF;	//Only to avoid the warning of unused variable 'reg32'

	// Finally init X_ON/X_OFF flags.
	xon_condition = true;
 8001e5e:	4b0a      	ldr	r3, [pc, #40]	; (8001e88 <serial_setup+0xc0>)
 8001e60:	2201      	movs	r2, #1
 8001e62:	701a      	strb	r2, [r3, #0]
	xoff_condition = false;
 8001e64:	4a09      	ldr	r2, [pc, #36]	; (8001e8c <serial_setup+0xc4>)
 8001e66:	2300      	movs	r3, #0
 8001e68:	7013      	strb	r3, [r2, #0]
	xonoff_sendnow = false;
 8001e6a:	4a09      	ldr	r2, [pc, #36]	; (8001e90 <serial_setup+0xc8>)
 8001e6c:	7013      	strb	r3, [r2, #0]
}
 8001e6e:	bd10      	pop	{r4, pc}
 8001e70:	40020000 	andmi	r0, r2, r0
 8001e74:	2000066c 	andcs	r0, r0, ip, ror #12
 8001e78:	20000674 	andcs	r0, r0, r4, ror r6
 8001e7c:	2000056c 	andcs	r0, r0, ip, ror #10
 8001e80:	20000564 	andcs	r0, r0, r4, ror #10
 8001e84:	40004400 	andmi	r4, r0, r0, lsl #8
 8001e88:	2000000b 	andcs	r0, r0, fp
 8001e8c:	20000774 	andcs	r0, r0, r4, ror r7
 8001e90:	20000775 	andcs	r0, r0, r5, ror r7

08001e94 <usart2_isr>:
void usart2_isr(void)
#endif
{
	//Clear RX errors: IDLE (bit 4), ORE (3), Noise detected (2), FRE (1), Parity Error (0)
	//A read to the USART_SR register followed by a read to the USART_DR register
	if ((USART_SR(USART_PORT) && 0B11111) != 0)
 8001e94:	f04f 2340 	mov.w	r3, #1073758208	; 0x40004000
{
 8001e98:	b510      	push	{r4, lr}
	if ((USART_SR(USART_PORT) && 0B11111) != 0)
 8001e9a:	f8d3 2400 	ldr.w	r2, [r3, #1024]	; 0x400
 8001e9e:	b10a      	cbz	r2, 8001ea4 <usart2_isr+0x10>
	{
		uint32_t reg32 = USART_DR(USART_PORT);
 8001ea0:	f8d3 2404 	ldr.w	r2, [r3, #1028]	; 0x404
		reg32 &= 0xFFFFFFFF;	//Only to avoid the warning of unused variable 'reg32'
	}

	// Check if we were called because of RXNE.
	if(((USART_CR1(USART_PORT)&USART_CR1_RXNEIE)!=0) && ((USART_SR(USART_PORT)&USART_SR_RXNE)!=0))
 8001ea4:	f8d3 240c 	ldr.w	r2, [r3, #1036]	; 0x40c
 8001ea8:	0690      	lsls	r0, r2, #26
 8001eaa:	d512      	bpl.n	8001ed2 <usart2_isr+0x3e>
 8001eac:	f8d3 3400 	ldr.w	r3, [r3, #1024]	; 0x400
 8001eb0:	0699      	lsls	r1, r3, #26
 8001eb2:	d50e      	bpl.n	8001ed2 <usart2_isr+0x3e>
	{
		// Retrieve the data from the peripheral and put in rx_ring.
		ring_put_ch(&rx_ring, (uint8_t)usart_recv(USART_PORT));
 8001eb4:	481f      	ldr	r0, [pc, #124]	; (8001f34 <usart2_isr+0xa0>)
 8001eb6:	f000 fe53 	bl	8002b60 <usart_recv>
	i = ring->put_ptr;				//i is the original position
 8001eba:	4b1f      	ldr	r3, [pc, #124]	; (8001f38 <usart2_isr+0xa4>)
 8001ebc:	8899      	ldrh	r1, [r3, #4]
	if(i_next != ring->get_ptr)
 8001ebe:	88dc      	ldrh	r4, [r3, #6]
	i_next = i + 1;						//i_next is the next position of i
 8001ec0:	1c4a      	adds	r2, r1, #1
	i_next = i_next & (uint16_t)(SERIAL_RING_BUFFER_SIZE - 1); //if(i_next >= (uint16_t)SERIAL_RING_BUFFER_SIZE) i_next = 0;
 8001ec2:	b2d2      	uxtb	r2, r2
	if(i_next != ring->get_ptr)
 8001ec4:	4294      	cmp	r4, r2
		ring->data[i] = ch;			//saves in the put_ptr position 
 8001ec6:	bf18      	it	ne
 8001ec8:	681c      	ldrne	r4, [r3, #0]
		ring_put_ch(&rx_ring, (uint8_t)usart_recv(USART_PORT));
 8001eca:	b2c0      	uxtb	r0, r0
		ring->data[i] = ch;			//saves in the put_ptr position 
 8001ecc:	bf1c      	itt	ne
 8001ece:	5460      	strbne	r0, [r4, r1]
		ring->put_ptr = i_next;	//now put_ptr points to the next position of i
 8001ed0:	809a      	strhne	r2, [r3, #4]
	}

	// Check if we were called because of TXE.
	if(((USART_CR1(USART_PORT) & USART_CR1_TXEIE)!=0) && ((USART_SR(USART_PORT) & USART_SR_TXE)!=0))
 8001ed2:	f04f 2140 	mov.w	r1, #1073758208	; 0x40004000
 8001ed6:	f8d1 340c 	ldr.w	r3, [r1, #1036]	; 0x40c
 8001eda:	061a      	lsls	r2, r3, #24
 8001edc:	d523      	bpl.n	8001f26 <usart2_isr+0x92>
 8001ede:	f8d1 3400 	ldr.w	r3, [r1, #1024]	; 0x400
 8001ee2:	061b      	lsls	r3, r3, #24
 8001ee4:	d51f      	bpl.n	8001f26 <usart2_isr+0x92>
	{
		int16_t data;
		uint16_t qty_in_buffer;

		if (xonoff_sendnow)
 8001ee6:	4b15      	ldr	r3, [pc, #84]	; (8001f3c <usart2_isr+0xa8>)
 8001ee8:	781a      	ldrb	r2, [r3, #0]
 8001eea:	b18a      	cbz	r2, 8001f10 <usart2_isr+0x7c>
		{
			if(xoff_condition)
 8001eec:	4a14      	ldr	r2, [pc, #80]	; (8001f40 <usart2_isr+0xac>)
 8001eee:	7812      	ldrb	r2, [r2, #0]
				data = X_OFF;
			if(xon_condition)
 8001ef0:	4a14      	ldr	r2, [pc, #80]	; (8001f44 <usart2_isr+0xb0>)
 8001ef2:	7812      	ldrb	r2, [r2, #0]
 8001ef4:	f002 01ff 	and.w	r1, r2, #255	; 0xff
 8001ef8:	b932      	cbnz	r2, 8001f08 <usart2_isr+0x74>
				data = X_ON;
			xonoff_sendnow = false;
 8001efa:	7019      	strb	r1, [r3, #0]
 8001efc:	2113      	movs	r1, #19
		else 
		{ //  Put data into the transmit register.
			usart_send(USART_PORT, (uint16_t) data);
		}
	}
}
 8001efe:	e8bd 4010 	ldmia.w	sp!, {r4, lr}
			usart_send(USART_PORT, (uint16_t) data);
 8001f02:	480c      	ldr	r0, [pc, #48]	; (8001f34 <usart2_isr+0xa0>)
 8001f04:	f000 be28 	b.w	8002b58 <usart_send>
			xonoff_sendnow = false;
 8001f08:	2200      	movs	r2, #0
 8001f0a:	701a      	strb	r2, [r3, #0]
				data = X_ON;
 8001f0c:	2111      	movs	r1, #17
 8001f0e:	e7f6      	b.n	8001efe <usart2_isr+0x6a>
	uint16_t i = ring->get_ptr;
 8001f10:	4a0d      	ldr	r2, [pc, #52]	; (8001f48 <usart2_isr+0xb4>)
 8001f12:	88d3      	ldrh	r3, [r2, #6]
	if(i == ring->put_ptr)
 8001f14:	8890      	ldrh	r0, [r2, #4]
 8001f16:	4298      	cmp	r0, r3
 8001f18:	d106      	bne.n	8001f28 <usart2_isr+0x94>
			USART_CR1(USART_PORT) &= ~USART_CR1_TXEIE;
 8001f1a:	f8d1 340c 	ldr.w	r3, [r1, #1036]	; 0x40c
 8001f1e:	f023 0380 	bic.w	r3, r3, #128	; 0x80
 8001f22:	f8c1 340c 	str.w	r3, [r1, #1036]	; 0x40c
}
 8001f26:	bd10      	pop	{r4, pc}
	int16_t result = (int16_t)ring->data[i];
 8001f28:	6811      	ldr	r1, [r2, #0]
 8001f2a:	5cc9      	ldrb	r1, [r1, r3]
	i++;
 8001f2c:	3301      	adds	r3, #1
	ring->get_ptr = i & (uint16_t)(SERIAL_RING_BUFFER_SIZE - 1); //if(i >= (uint16_t)SERIAL_RING_BUFFER_SIZE)	i = 0;
 8001f2e:	b2db      	uxtb	r3, r3
 8001f30:	80d3      	strh	r3, [r2, #6]
		if (data == -1) 
 8001f32:	e7e4      	b.n	8001efe <usart2_isr+0x6a>
 8001f34:	40004400 	andmi	r4, r0, r0, lsl #8
 8001f38:	20000564 	andcs	r0, r0, r4, ror #10
 8001f3c:	20000775 	andcs	r0, r0, r5, ror r7
 8001f40:	20000774 	andcs	r0, r0, r4, ror r7
 8001f44:	2000000b 	andcs	r0, r0, fp
 8001f48:	2000066c 	andcs	r0, r0, ip, ror #12

08001f4c <time_capture>:
	timer_enable_irq(timer_peripheral, TIM_DIER_CC1IE | TIM_DIER_UIE);
}


void time_capture(void)
{
 8001f4c:	b510      	push	{r4, lr}
	TIM2_Update_Cnt++;
 8001f4e:	4c04      	ldr	r4, [pc, #16]	; (8001f60 <time_capture+0x14>)
 8001f50:	e9d4 2300 	ldrd	r2, r3, [r4]
 8001f54:	1c50      	adds	r0, r2, #1
 8001f56:	f143 0100 	adc.w	r1, r3, #0
 8001f5a:	e9c4 0100 	strd	r0, r1, [r4]
}
 8001f5e:	bd10      	pop	{r4, pc}
 8001f60:	20000778 	andcs	r0, r0, r8, ror r7

08001f64 <delay_usec>:
	TIM_CR1(TIM2) &= ~TIM_CR1_CEN;
 8001f64:	f04f 4380 	mov.w	r3, #1073741824	; 0x40000000
	TIM_CNT(TIM2) = 0xFFFFFFFF + 1 - usec;
 8001f68:	4240      	negs	r0, r0
	TIM_CR1(TIM2) &= ~TIM_CR1_CEN;
 8001f6a:	681a      	ldr	r2, [r3, #0]
 8001f6c:	f022 0201 	bic.w	r2, r2, #1
 8001f70:	601a      	str	r2, [r3, #0]
	TIM_CCER(TIM2) &= ~TIM_CCER_CC1E;
 8001f72:	6a1a      	ldr	r2, [r3, #32]
 8001f74:	f022 0201 	bic.w	r2, r2, #1
 8001f78:	621a      	str	r2, [r3, #32]
	TIM_CR1(TIM2) |= TIM_CR1_URS;
 8001f7a:	681a      	ldr	r2, [r3, #0]
 8001f7c:	f042 0204 	orr.w	r2, r2, #4
 8001f80:	601a      	str	r2, [r3, #0]
	TIM_EGR(TIM2) |= TIM_EGR_UG;
 8001f82:	695a      	ldr	r2, [r3, #20]
 8001f84:	f042 0201 	orr.w	r2, r2, #1
 8001f88:	615a      	str	r2, [r3, #20]
	TIM_SR(TIM2) &= ~TIM_SR_UIF;
 8001f8a:	691a      	ldr	r2, [r3, #16]
 8001f8c:	f022 0201 	bic.w	r2, r2, #1
 8001f90:	611a      	str	r2, [r3, #16]
	next_routine = next_step;
 8001f92:	4a08      	ldr	r2, [pc, #32]	; (8001fb4 <delay_usec+0x50>)
	TIM_CNT(TIM2) = 0xFFFFFFFF + 1 - usec;
 8001f94:	6258      	str	r0, [r3, #36]	; 0x24
	next_routine = next_step;
 8001f96:	6011      	str	r1, [r2, #0]
	TIM_CR1(TIM2) |= TIM_CR1_OPM;
 8001f98:	681a      	ldr	r2, [r3, #0]
 8001f9a:	f042 0208 	orr.w	r2, r2, #8
 8001f9e:	601a      	str	r2, [r3, #0]
	TIM_CR1(TIM2) |= TIM_CR1_CEN;
 8001fa0:	681a      	ldr	r2, [r3, #0]
 8001fa2:	f042 0201 	orr.w	r2, r2, #1
 8001fa6:	601a      	str	r2, [r3, #0]
	TIM_DIER(TIM2) |= TIM_DIER_UIE;
 8001fa8:	68da      	ldr	r2, [r3, #12]
 8001faa:	f042 0201 	orr.w	r2, r2, #1
 8001fae:	60da      	str	r2, [r3, #12]
}
 8001fb0:	4770      	bx	lr
 8001fb2:	bf00      	nop
 8001fb4:	20000788 	andcs	r0, r0, r8, lsl #15

08001fb8 <prepares_capture>:
	TIM_CCR1(timer_peripheral);
 8001fb8:	6b43      	ldr	r3, [r0, #52]	; 0x34
	TIM_SR(timer_peripheral) &= ~(TIM_SR_CC1IF | TIM_SR_CC1OF);					//if the above dummy read didn`t do the task
 8001fba:	6903      	ldr	r3, [r0, #16]
 8001fbc:	f423 7300 	bic.w	r3, r3, #512	; 0x200
 8001fc0:	f023 0302 	bic.w	r3, r3, #2
{
 8001fc4:	b510      	push	{r4, lr}
	TIM_SR(timer_peripheral) &= ~(TIM_SR_CC1IF | TIM_SR_CC1OF);					//if the above dummy read didn`t do the task
 8001fc6:	6103      	str	r3, [r0, #16]
	TIM_CCER(timer_peripheral) = 0;//To zero TIM_CCER_CC1E and prepair to select active input
 8001fc8:	2300      	movs	r3, #0
 8001fca:	6203      	str	r3, [r0, #32]
	TIM_CCMR1(timer_peripheral) = TIM_CCMR1_CC1S_IN_TI1;
 8001fcc:	2301      	movs	r3, #1
 8001fce:	6183      	str	r3, [r0, #24]
	TIM_CCER(timer_peripheral) = TIM_CCER_CC1P;
 8001fd0:	2302      	movs	r3, #2
 8001fd2:	6203      	str	r3, [r0, #32]
	TIM_CCMR1(timer_peripheral) &= (TIM_CCMR1_IC1F_OFF | 0b11110011); //No prescaler and no filter, sampling is done at fDTS
 8001fd4:	6983      	ldr	r3, [r0, #24]
 8001fd6:	f003 03f3 	and.w	r3, r3, #243	; 0xf3
 8001fda:	6183      	str	r3, [r0, #24]
	TIM_CCER(timer_peripheral) |= TIM_CCER_CC1E;
 8001fdc:	6a03      	ldr	r3, [r0, #32]
{
 8001fde:	4604      	mov	r4, r0
	TIM_CCER(timer_peripheral) |= TIM_CCER_CC1E;
 8001fe0:	f043 0301 	orr.w	r3, r3, #1
 8001fe4:	6203      	str	r3, [r0, #32]
	timer_set_period(timer_peripheral, 0xFFFFFFFF);
 8001fe6:	f04f 31ff 	mov.w	r1, #4294967295	; 0xffffffff
 8001fea:	f000 fd77 	bl	8002adc <timer_set_period>
	TIM_CR1(timer_peripheral) &= ~TIM_CR1_OPM;
 8001fee:	6823      	ldr	r3, [r4, #0]
	time_between_ps2clk = 0;
 8001ff0:	490f      	ldr	r1, [pc, #60]	; (8002030 <prepares_capture+0x78>)
	TIM_CR1(timer_peripheral) &= ~TIM_CR1_OPM;
 8001ff2:	f023 0308 	bic.w	r3, r3, #8
 8001ff6:	6023      	str	r3, [r4, #0]
	time_between_ps2clk = 0;
 8001ff8:	2200      	movs	r2, #0
 8001ffa:	2300      	movs	r3, #0
 8001ffc:	e9c1 2300 	strd	r2, r3, [r1]
	acctimeps2data0 = 0;
 8002000:	490c      	ldr	r1, [pc, #48]	; (8002034 <prepares_capture+0x7c>)
 8002002:	e9c1 2300 	strd	r2, r3, [r1]
	TIM2_Update_Cnt = 0;
 8002006:	490c      	ldr	r1, [pc, #48]	; (8002038 <prepares_capture+0x80>)
 8002008:	e9c1 2300 	strd	r2, r3, [r1]
	next_routine = time_capture;
 800200c:	4b0b      	ldr	r3, [pc, #44]	; (800203c <prepares_capture+0x84>)
 800200e:	4a0c      	ldr	r2, [pc, #48]	; (8002040 <prepares_capture+0x88>)
 8002010:	601a      	str	r2, [r3, #0]
	TIM_CR1(timer_peripheral) &= ~TIM_CR1_URS;
 8002012:	6823      	ldr	r3, [r4, #0]
 8002014:	f023 0304 	bic.w	r3, r3, #4
 8002018:	6023      	str	r3, [r4, #0]
	TIM_CR1(timer_peripheral) |= TIM_CR1_CEN;
 800201a:	6823      	ldr	r3, [r4, #0]
 800201c:	f043 0301 	orr.w	r3, r3, #1
 8002020:	6023      	str	r3, [r4, #0]
	timer_enable_irq(timer_peripheral, TIM_DIER_CC1IE | TIM_DIER_UIE);
 8002022:	4620      	mov	r0, r4
 8002024:	2103      	movs	r1, #3
}
 8002026:	e8bd 4010 	ldmia.w	sp!, {r4, lr}
	timer_enable_irq(timer_peripheral, TIM_DIER_CC1IE | TIM_DIER_UIE);
 800202a:	f000 bd35 	b.w	8002a98 <timer_enable_irq>
 800202e:	bf00      	nop
 8002030:	20000790 	mulcs	r0, r0, r7
 8002034:	20000780 	andcs	r0, r0, r0, lsl #15
 8002038:	20000778 	andcs	r0, r0, r8, ror r7
 800203c:	20000788 	andcs	r0, r0, r8, lsl #15
 8002040:	08001f4d 	stmdaeq	r0, {r0, r2, r3, r6, r8, r9, sl, fp, ip}

08002044 <tim2_setup>:
{
 8002044:	b508      	push	{r3, lr}
	rcc_periph_clock_enable(RCC_TIM2);
 8002046:	f44f 6000 	mov.w	r0, #2048	; 0x800
 800204a:	f000 fb71 	bl	8002730 <rcc_periph_clock_enable>
	rcc_periph_reset_pulse(RST_TIM2);
 800204e:	f44f 6080 	mov.w	r0, #1024	; 0x400
 8002052:	f000 fb7b 	bl	800274c <rcc_periph_reset_pulse>
	nvic_enable_irq(NVIC_TIM2_IRQ);
 8002056:	201c      	movs	r0, #28
 8002058:	f000 fdfe 	bl	8002c58 <nvic_enable_irq>
	nvic_set_priority(NVIC_TIM2_IRQ, 11);
 800205c:	210b      	movs	r1, #11
 800205e:	201c      	movs	r0, #28
 8002060:	f000 fe08 	bl	8002c74 <nvic_set_priority>
	gpio_set_af(PS2_CLOCK_PIN_PORT, GPIO_AF1, PS2_CLOCK_PIN_ID);
 8002064:	4813      	ldr	r0, [pc, #76]	; (80020b4 <tim2_setup+0x70>)
 8002066:	f44f 4200 	mov.w	r2, #32768	; 0x8000
 800206a:	2101      	movs	r1, #1
 800206c:	f000 faf4 	bl	8002658 <gpio_set_af>
	timer_set_mode(TIM2, TIM_CR1_CKD_CK_INT, TIM_CR1_CEN, TIM_CR1_DIR_UP);
 8002070:	2300      	movs	r3, #0
 8002072:	2201      	movs	r2, #1
 8002074:	4619      	mov	r1, r3
 8002076:	f04f 4080 	mov.w	r0, #1073741824	; 0x40000000
 800207a:	f000 fd1f 	bl	8002abc <timer_set_mode>
	timer_set_prescaler(TIM2, ((rcc_apb2_frequency * 2) / 1000000) - 1);
 800207e:	4b0e      	ldr	r3, [pc, #56]	; (80020b8 <tim2_setup+0x74>)
 8002080:	6819      	ldr	r1, [r3, #0]
 8002082:	4b0e      	ldr	r3, [pc, #56]	; (80020bc <tim2_setup+0x78>)
 8002084:	f04f 4080 	mov.w	r0, #1073741824	; 0x40000000
 8002088:	0049      	lsls	r1, r1, #1
 800208a:	fbb1 f1f3 	udiv	r1, r1, r3
 800208e:	3901      	subs	r1, #1
 8002090:	f000 fd22 	bl	8002ad8 <timer_set_prescaler>
	timer_set_period(TIM2, 0xFFFFFFFF);
 8002094:	f04f 31ff 	mov.w	r1, #4294967295	; 0xffffffff
 8002098:	f04f 4080 	mov.w	r0, #1073741824	; 0x40000000
 800209c:	f000 fd1e 	bl	8002adc <timer_set_period>
	timer_enable_preload(TIM2);
 80020a0:	f04f 4080 	mov.w	r0, #1073741824	; 0x40000000
 80020a4:	f000 fd13 	bl	8002ace <timer_enable_preload>
}
 80020a8:	e8bd 4008 	ldmia.w	sp!, {r3, lr}
	prepares_capture(TIM2);
 80020ac:	f04f 4080 	mov.w	r0, #1073741824	; 0x40000000
 80020b0:	f7ff bf82 	b.w	8001fb8 <prepares_capture>
 80020b4:	40020000 	andmi	r0, r2, r0
 80020b8:	20000014 	andcs	r0, r0, r4, lsl r0
 80020bc:	000f4240 	andeq	r4, pc, r0, asr #4

080020c0 <tim2_isr>:
/*************************************************************************************************/
/*************************************************************************************************/
void tim2_isr(void)
{
	//Verify if Update Interrupt Flag
	if (timer_get_flag(TIM2, TIM_SR_UIF))
 80020c0:	2101      	movs	r1, #1
{
 80020c2:	b5d0      	push	{r4, r6, r7, lr}
	if (timer_get_flag(TIM2, TIM_SR_UIF))
 80020c4:	f04f 4080 	mov.w	r0, #1073741824	; 0x40000000
 80020c8:	f000 fcef 	bl	8002aaa <timer_get_flag>
	{
		//Debug & performance measurement
		gpio_clear(INT_TIM2_port, TIM2UIF_pin_id); //Signs start of interruption
 80020cc:	2102      	movs	r1, #2
	if (timer_get_flag(TIM2, TIM_SR_UIF))
 80020ce:	b180      	cbz	r0, 80020f2 <tim2_isr+0x32>
		gpio_clear(INT_TIM2_port, TIM2UIF_pin_id); //Signs start of interruption
 80020d0:	4825      	ldr	r0, [pc, #148]	; (8002168 <tim2_isr+0xa8>)
 80020d2:	f000 fa6c 	bl	80025ae <gpio_clear>

		// Clear timer Update Interrupt Flag
		timer_clear_flag(TIM2, TIM_SR_UIF);
 80020d6:	2101      	movs	r1, #1
 80020d8:	f04f 4080 	mov.w	r0, #1073741824	; 0x40000000
 80020dc:	f000 fceb 	bl	8002ab6 <timer_clear_flag>
		next_routine();
 80020e0:	4b22      	ldr	r3, [pc, #136]	; (800216c <tim2_isr+0xac>)
 80020e2:	681b      	ldr	r3, [r3, #0]
 80020e4:	4798      	blx	r3
		ps2_clock_update(ps2datapin_logicstate);

		//Debug & performance measurement
		gpio_set(INT_TIM2_port, TIM2CC1_pin_id); //Signs end of TIM2 interruption. Default condition is "1"
	}
}
 80020e6:	e8bd 40d0 	ldmia.w	sp!, {r4, r6, r7, lr}
		gpio_set(INT_TIM2_port, TIM2CC1_pin_id); //Signs end of TIM2 interruption. Default condition is "1"
 80020ea:	481f      	ldr	r0, [pc, #124]	; (8002168 <tim2_isr+0xa8>)
 80020ec:	2102      	movs	r1, #2
 80020ee:	f000 ba5c 	b.w	80025aa <gpio_set>
	else if (timer_get_flag(TIM2, TIM_SR_CC1IF))
 80020f2:	f04f 4080 	mov.w	r0, #1073741824	; 0x40000000
 80020f6:	f000 fcd8 	bl	8002aaa <timer_get_flag>
 80020fa:	2800      	cmp	r0, #0
 80020fc:	d032      	beq.n	8002164 <tim2_isr+0xa4>
		gpio_clear(INT_TIM2_port, TIM2CC1_pin_id); //Signs start of interruption
 80020fe:	481a      	ldr	r0, [pc, #104]	; (8002168 <tim2_isr+0xa8>)
		time_between_ps2clk = TIM2_Update_Cnt << 32 | TIM_CCR1(TIM2);
 8002100:	4c1b      	ldr	r4, [pc, #108]	; (8002170 <tim2_isr+0xb0>)
		gpio_clear(INT_TIM2_port, TIM2CC1_pin_id); //Signs start of interruption
 8002102:	2102      	movs	r1, #2
 8002104:	f000 fa53 	bl	80025ae <gpio_clear>
		TIM_SR(TIM2) &= ~(TIM_SR_CC1IF | TIM_SR_CC1OF);
 8002108:	f04f 4380 	mov.w	r3, #1073741824	; 0x40000000
 800210c:	691a      	ldr	r2, [r3, #16]
 800210e:	f422 7200 	bic.w	r2, r2, #512	; 0x200
 8002112:	f022 0202 	bic.w	r2, r2, #2
 8002116:	611a      	str	r2, [r3, #16]
		time_between_ps2clk = TIM2_Update_Cnt << 32 | TIM_CCR1(TIM2);
 8002118:	e9d4 6700 	ldrd	r6, r7, [r4]
 800211c:	6b5a      	ldr	r2, [r3, #52]	; 0x34
 800211e:	4610      	mov	r0, r2
 8002120:	4a14      	ldr	r2, [pc, #80]	; (8002174 <tim2_isr+0xb4>)
 8002122:	4631      	mov	r1, r6
 8002124:	e9c2 0100 	strd	r0, r1, [r2]
		TIM_CR1(TIM2) |= TIM_CR1_URS;
 8002128:	681a      	ldr	r2, [r3, #0]
		bool ps2datapin_logicstate=gpio_get(PS2_DATA_PIN_PORT, PS2_DATA_PIN_ID);
 800212a:	4813      	ldr	r0, [pc, #76]	; (8002178 <tim2_isr+0xb8>)
		TIM_CR1(TIM2) |= TIM_CR1_URS;
 800212c:	f042 0204 	orr.w	r2, r2, #4
 8002130:	601a      	str	r2, [r3, #0]
		TIM_EGR(TIM2) |= TIM_EGR_UG;
 8002132:	695a      	ldr	r2, [r3, #20]
 8002134:	f042 0201 	orr.w	r2, r2, #1
 8002138:	615a      	str	r2, [r3, #20]
		TIM_SR(TIM2) &= ~TIM_SR_UIF;
 800213a:	691a      	ldr	r2, [r3, #16]
 800213c:	f022 0201 	bic.w	r2, r2, #1
 8002140:	611a      	str	r2, [r3, #16]
		TIM_CR1(TIM2) &= ~TIM_CR1_URS;
 8002142:	681a      	ldr	r2, [r3, #0]
 8002144:	f022 0204 	bic.w	r2, r2, #4
 8002148:	601a      	str	r2, [r3, #0]
		bool ps2datapin_logicstate=gpio_get(PS2_DATA_PIN_PORT, PS2_DATA_PIN_ID);
 800214a:	2120      	movs	r1, #32
		TIM2_Update_Cnt = 0;
 800214c:	2200      	movs	r2, #0
 800214e:	2300      	movs	r3, #0
 8002150:	e9c4 2300 	strd	r2, r3, [r4]
		bool ps2datapin_logicstate=gpio_get(PS2_DATA_PIN_PORT, PS2_DATA_PIN_ID);
 8002154:	f000 fa2e 	bl	80025b4 <gpio_get>
		ps2_clock_update(ps2datapin_logicstate);
 8002158:	3800      	subs	r0, #0
 800215a:	bf18      	it	ne
 800215c:	2001      	movne	r0, #1
 800215e:	f7fe ff71 	bl	8001044 <ps2_clock_update>
 8002162:	e7c0      	b.n	80020e6 <tim2_isr+0x26>
}
 8002164:	bdd0      	pop	{r4, r6, r7, pc}
 8002166:	bf00      	nop
 8002168:	40020000 	andmi	r0, r2, r0
 800216c:	20000788 	andcs	r0, r0, r8, lsl #15
 8002170:	20000778 	andcs	r0, r0, r8, ror r7
 8002174:	20000790 	mulcs	r0, r0, r7
 8002178:	40020400 	andmi	r0, r2, r0, lsl #8

0800217c <main>:
extern uint8_t formerscancode[4];									//Declared on msxmap.cpp
extern bool mount_scancode_OK; 										//Declared on ps2handl.c


int main(void)
{
 800217c:	b5f7      	push	{r0, r1, r2, r4, r5, r6, r7, lr}
	rcc_clock_setup_pll(&rcc_hse_25mhz_3v3[RCC_CLOCK_3V3_84MHZ]);
 800217e:	487b      	ldr	r0, [pc, #492]	; (800236c <main+0x1f0>)
 8002180:	f000 fc18 	bl	80029b4 <rcc_clock_setup_pll>

	// Disable JTAG, enable SWD. This frees up GPIO PA15 (JTDI), PB3 (JTDO / TRACESWO) and PB4 (NJTRST)
	// GPIO PA13 (SWDIO) and PA14 (SWCLK) are still used by STlink SWD.

	rcc_periph_clock_enable(RCC_GPIOA);
 8002184:	f44f 60c0 	mov.w	r0, #1536	; 0x600
 8002188:	f000 fad2 	bl	8002730 <rcc_periph_clock_enable>
	rcc_periph_clock_enable(RCC_GPIOB);
 800218c:	f240 6001 	movw	r0, #1537	; 0x601
 8002190:	f000 face 	bl	8002730 <rcc_periph_clock_enable>
	rcc_periph_clock_enable(RCC_GPIOC);
 8002194:	f240 6002 	movw	r0, #1538	; 0x602
 8002198:	f000 faca 	bl	8002730 <rcc_periph_clock_enable>

	power_on_ps2_keyboard();
 800219c:	f7fe fd6a 	bl	8000c74 <power_on_ps2_keyboard>

	//Debug & performance measurement
	general_debug_setup();
 80021a0:	f7ff f94e 	bl	8001440 <general_debug_setup>

	serial_setup();
 80021a4:	f7ff fe10 	bl	8001dc8 <serial_setup>

	//User messages
	usart_send_string((uint8_t*)"\n\n\n\rPS/2 Keyboard Adapter for MSX, based on STM32F401\n\rFirmware built on ");
 80021a8:	4871      	ldr	r0, [pc, #452]	; (8002370 <main+0x1f4>)
 80021aa:	f7ff fdbe 	bl	8001d2a <usart_send_string>
	usart_send_string((uint8_t*)__DATE__);
 80021ae:	4871      	ldr	r0, [pc, #452]	; (8002374 <main+0x1f8>)
 80021b0:	f7ff fdbb 	bl	8001d2a <usart_send_string>
	usart_send_string((uint8_t*)" ");
 80021b4:	4870      	ldr	r0, [pc, #448]	; (8002378 <main+0x1fc>)
 80021b6:	f7ff fdb8 	bl	8001d2a <usart_send_string>
	usart_send_string((uint8_t*)__TIME__);
 80021ba:	4870      	ldr	r0, [pc, #448]	; (800237c <main+0x200>)
 80021bc:	f7ff fdb5 	bl	8001d2a <usart_send_string>
	usart_send_string((uint8_t*)"\n\n\rBooting ...\n\n\r");
 80021c0:	486f      	ldr	r0, [pc, #444]	; (8002380 <main+0x204>)
 80021c2:	f7ff fdb2 	bl	8001d2a <usart_send_string>


	//User messages
	usart_send_string((uint8_t*)"PS/2 Interface powered up.\n\n\r");
 80021c6:	486f      	ldr	r0, [pc, #444]	; (8002384 <main+0x208>)
 80021c8:	f7ff fdaf 	bl	8001d2a <usart_send_string>
	usart_send_string((uint8_t*)"Configuring:\n\r");
 80021cc:	486e      	ldr	r0, [pc, #440]	; (8002388 <main+0x20c>)
 80021ce:	f7ff fdac 	bl	8001d2a <usart_send_string>
	usart_send_string((uint8_t*)"- SysTick;\n");
 80021d2:	486e      	ldr	r0, [pc, #440]	; (800238c <main+0x210>)
 80021d4:	f7ff fda9 	bl	8001d2a <usart_send_string>

	systick_setup();
 80021d8:	f7ff fc98 	bl	8001b0c <_Z13systick_setupv>
	
	//User messages
	usart_send_string((uint8_t*)"- High resolution Timer 2;\n");
 80021dc:	486c      	ldr	r0, [pc, #432]	; (8002390 <main+0x214>)
 80021de:	f7ff fda4 	bl	8001d2a <usart_send_string>

	// Now configure High Resolution Timer for PS/2 Clock interrupts (via CC) and micro second Delay
	tim2_setup();
 80021e2:	f7ff ff2f 	bl	8002044 <tim2_setup>

	//User messages
	usart_send_string((uint8_t*)"- 5V compatible pin ports and interrupts to interface to MSX;\n\r");
 80021e6:	486b      	ldr	r0, [pc, #428]	; (8002394 <main+0x218>)
 80021e8:	f7ff fd9f 	bl	8001d2a <usart_send_string>

	msxmap object;
	object.msx_interface_setup();
 80021ec:	4668      	mov	r0, sp
 80021ee:	f7fd ffdd 	bl	80001ac <_ZN6msxmap19msx_interface_setupEv>

	//The user message "PS/2 interface is ..." is within ps2detect
	
	if (!compatible_database || !ps2_keyb_detect())
 80021f2:	4b69      	ldr	r3, [pc, #420]	; (8002398 <main+0x21c>)
 80021f4:	781b      	ldrb	r3, [r3, #0]
 80021f6:	b96b      	cbnz	r3, 8002214 <main+0x98>
	{
		//Here it will allow update the Database Conversion, as the PS/2 keyboard was not detected
		//or Database is incompatible, so at this point, this module is not working as target planned.

		//No PS/2 keyboard, so power off the PS/2 port
		power_off_ps2_keyboard();
 80021f8:	f7fe fd1c 	bl	8000c34 <power_off_ps2_keyboard>

		//Init procedure to fillin MSXTABLE by receiving an INTEL HEX through USART1
		//Disables all interrupts but systicks and USART
		exti_disable_request(Y3_exti | Y2_exti | Y1_exti | Y0_exti);
 80021fc:	f44f 70f0 	mov.w	r0, #480	; 0x1e0
 8002200:	f000 f90e 	bl	8002420 <exti_disable_request>
		timer_disable_irq(TIM2, TIM_DIER_CC1IE | TIM_DIER_UIE);
 8002204:	2103      	movs	r1, #3
 8002206:	f04f 4080 	mov.w	r0, #1073741824	; 0x40000000
 800220a:	f000 fc49 	bl	8002aa0 <timer_disable_irq>

		//Read the MSX Database Table Intel Hex by serial and flashes up to 3K, from 0x0800F400 to 0x0800FFFF
		flashF4_rw();
 800220e:	f7ff fc4f 	bl	8001ab0 <flashF4_rw>

		//Halt here.
		for(;;);
 8002212:	e7fe      	b.n	8002212 <main+0x96>
	if (!compatible_database || !ps2_keyb_detect())
 8002214:	f7fe ff8e 	bl	8001134 <ps2_keyb_detect>
 8002218:	2800      	cmp	r0, #0
 800221a:	d0ed      	beq.n	80021f8 <main+0x7c>
	iwdg_set_period_ms(67);	// 2 x sys_timer
	iwdg_start();


	//Test keyboard leds (Jhonson Counter = for humans)
	uint32_t systicks_base = systicks;
 800221c:	4d5f      	ldr	r5, [pc, #380]	; (800239c <main+0x220>)
	iwdg_set_period_ms(67);	// 2 x sys_timer
 800221e:	2043      	movs	r0, #67	; 0x43
 8002220:	f000 fa56 	bl	80026d0 <iwdg_set_period_ms>
	iwdg_start();
 8002224:	f000 fa44 	bl	80026b0 <iwdg_start>
	ps2_update_leds(false, false, false);
 8002228:	2200      	movs	r2, #0
	uint32_t systicks_base = systicks;
 800222a:	682c      	ldr	r4, [r5, #0]
	ps2_update_leds(false, false, false);
 800222c:	4611      	mov	r1, r2
 800222e:	4610      	mov	r0, r2
 8002230:	f7ff f832 	bl	8001298 <ps2_update_leds>
	while (systicks < (systicks_base + 1 * DELAY_JHONSON))
 8002234:	1da3      	adds	r3, r4, #6
 8002236:	682a      	ldr	r2, [r5, #0]
 8002238:	4293      	cmp	r3, r2
 800223a:	d901      	bls.n	8002240 <main+0xc4>
		__asm("nop");
 800223c:	bf00      	nop
	while (systicks < (systicks_base + 1 * DELAY_JHONSON))
 800223e:	e7fa      	b.n	8002236 <main+0xba>

	ps2_update_leds(true, false, false);
 8002240:	2200      	movs	r2, #0
 8002242:	4611      	mov	r1, r2
 8002244:	2001      	movs	r0, #1
 8002246:	f7ff f827 	bl	8001298 <ps2_update_leds>
	while (systicks < (systicks_base + 2 * DELAY_JHONSON))
 800224a:	f104 030c 	add.w	r3, r4, #12
 800224e:	682a      	ldr	r2, [r5, #0]
 8002250:	4293      	cmp	r3, r2
 8002252:	d901      	bls.n	8002258 <main+0xdc>
		__asm("nop");
 8002254:	bf00      	nop
	while (systicks < (systicks_base + 2 * DELAY_JHONSON))
 8002256:	e7fa      	b.n	800224e <main+0xd2>

	ps2_update_leds(true, true, false);
 8002258:	2101      	movs	r1, #1
 800225a:	2200      	movs	r2, #0
 800225c:	4608      	mov	r0, r1
 800225e:	f7ff f81b 	bl	8001298 <ps2_update_leds>
	while (systicks < (systicks_base + 3 * DELAY_JHONSON))
 8002262:	f104 0312 	add.w	r3, r4, #18
 8002266:	682a      	ldr	r2, [r5, #0]
 8002268:	4293      	cmp	r3, r2
 800226a:	d901      	bls.n	8002270 <main+0xf4>
		__asm("nop");
 800226c:	bf00      	nop
	while (systicks < (systicks_base + 3 * DELAY_JHONSON))
 800226e:	e7fa      	b.n	8002266 <main+0xea>

	ps2_update_leds(true, true, true);
 8002270:	2201      	movs	r2, #1
 8002272:	4611      	mov	r1, r2
 8002274:	4610      	mov	r0, r2
 8002276:	f7ff f80f 	bl	8001298 <ps2_update_leds>
	while (systicks < (systicks_base + 4 * DELAY_JHONSON))
 800227a:	f104 0318 	add.w	r3, r4, #24
 800227e:	682a      	ldr	r2, [r5, #0]
 8002280:	4293      	cmp	r3, r2
 8002282:	d901      	bls.n	8002288 <main+0x10c>
		__asm("nop");
 8002284:	bf00      	nop
	while (systicks < (systicks_base + 4 * DELAY_JHONSON))
 8002286:	e7fa      	b.n	800227e <main+0x102>

	ps2_update_leds(false, true, true);
 8002288:	2201      	movs	r2, #1
 800228a:	4611      	mov	r1, r2
 800228c:	2000      	movs	r0, #0
 800228e:	f7ff f803 	bl	8001298 <ps2_update_leds>
	while (systicks < (systicks_base + 5 * DELAY_JHONSON))
 8002292:	f104 031e 	add.w	r3, r4, #30
 8002296:	682a      	ldr	r2, [r5, #0]
 8002298:	4293      	cmp	r3, r2
 800229a:	d901      	bls.n	80022a0 <main+0x124>
		__asm("nop");
 800229c:	bf00      	nop
	while (systicks < (systicks_base + 5 * DELAY_JHONSON))
 800229e:	e7fa      	b.n	8002296 <main+0x11a>

	ps2_update_leds(false, false, true);
 80022a0:	2100      	movs	r1, #0
 80022a2:	2201      	movs	r2, #1
 80022a4:	4608      	mov	r0, r1
 80022a6:	f7fe fff7 	bl	8001298 <ps2_update_leds>
	while (systicks < (systicks_base + 6 * DELAY_JHONSON))
 80022aa:	f104 0324 	add.w	r3, r4, #36	; 0x24
 80022ae:	682a      	ldr	r2, [r5, #0]
 80022b0:	4293      	cmp	r3, r2
 80022b2:	d901      	bls.n	80022b8 <main+0x13c>
		__asm("nop");
 80022b4:	bf00      	nop
	while (systicks < (systicks_base + 6 * DELAY_JHONSON))
 80022b6:	e7fa      	b.n	80022ae <main+0x132>

	ps2_update_leds(false, false, false);
 80022b8:	2200      	movs	r2, #0
 80022ba:	4611      	mov	r1, r2
 80022bc:	4610      	mov	r0, r2
 80022be:	f7fe ffeb 	bl	8001298 <ps2_update_leds>
	while (systicks < (systicks_base + 7 * DELAY_JHONSON))
 80022c2:	342a      	adds	r4, #42	; 0x2a
 80022c4:	682b      	ldr	r3, [r5, #0]
 80022c6:	429c      	cmp	r4, r3
 80022c8:	d84e      	bhi.n	8002368 <main+0x1ec>
		{
			//At this point, we already have the assembled compound keys code, so
			//to avoid unnecessary processing at convert2msx, check if this last scancode
			//is different from the former one.
			if (
			(scancode[0] != formerscancode[0]) ||
 80022ca:	4c35      	ldr	r4, [pc, #212]	; (80023a0 <main+0x224>)
				usart_send_string((uint8_t*)"; ");
				conv_uint8_to_2a_hex(scancode[3], &mountstring[0]);
				usart_send_string(&mountstring[0]);
				usart_send_string((uint8_t*)"\n"); */
				//Toggle led each keyboard change (both new presses and releases).
				gpio_toggle(GPIOC, GPIO13); //Toggle led to sinalize a scan code be sending to convert2msx
 80022cc:	4e35      	ldr	r6, [pc, #212]	; (80023a4 <main+0x228>)
		if (mount_scancode())
 80022ce:	f7ff f80f 	bl	80012f0 <mount_scancode>
 80022d2:	b338      	cbz	r0, 8002324 <main+0x1a8>
			(scancode[0] != formerscancode[0]) ||
 80022d4:	4d34      	ldr	r5, [pc, #208]	; (80023a8 <main+0x22c>)
			if (
 80022d6:	7822      	ldrb	r2, [r4, #0]
 80022d8:	782b      	ldrb	r3, [r5, #0]
 80022da:	429a      	cmp	r2, r3
 80022dc:	d10b      	bne.n	80022f6 <main+0x17a>
			(scancode[0] != formerscancode[0]) ||
 80022de:	7862      	ldrb	r2, [r4, #1]
 80022e0:	786b      	ldrb	r3, [r5, #1]
 80022e2:	429a      	cmp	r2, r3
 80022e4:	d107      	bne.n	80022f6 <main+0x17a>
			(scancode[1] != formerscancode[1]) ||
 80022e6:	78a2      	ldrb	r2, [r4, #2]
 80022e8:	78ab      	ldrb	r3, [r5, #2]
 80022ea:	429a      	cmp	r2, r3
 80022ec:	d103      	bne.n	80022f6 <main+0x17a>
			(scancode[2] != formerscancode[2]) ||
 80022ee:	78e2      	ldrb	r2, [r4, #3]
 80022f0:	78eb      	ldrb	r3, [r5, #3]
 80022f2:	429a      	cmp	r2, r3
 80022f4:	d007      	beq.n	8002306 <main+0x18a>
				gpio_toggle(GPIOC, GPIO13); //Toggle led to sinalize a scan code be sending to convert2msx
 80022f6:	4630      	mov	r0, r6
 80022f8:	f44f 5100 	mov.w	r1, #8192	; 0x2000
 80022fc:	f000 f95d 	bl	80025ba <gpio_toggle>
				// Do the MSX search and conversion
				msxmap objeto;
				objeto.convert2msx();
 8002300:	a801      	add	r0, sp, #4
 8002302:	f7fe fb0d 	bl	8000920 <_ZN6msxmap11convert2msxEv>
			}	//if (scancode != formerscancode)
			//update former keystroke
			formerscancode[0] = scancode[0];
 8002306:	7823      	ldrb	r3, [r4, #0]
 8002308:	702b      	strb	r3, [r5, #0]
			formerscancode[1] = scancode[1];
 800230a:	7863      	ldrb	r3, [r4, #1]
 800230c:	706b      	strb	r3, [r5, #1]
			formerscancode[2] = scancode[2];
 800230e:	78a3      	ldrb	r3, [r4, #2]
			//Now we can reset to prepair to do a new mount_scancode (Clear to read a new key press or release)
			scancode[0] = 0;
			scancode[1] = 0;
			scancode[2] = 0;
			scancode[3] = 0;
			mount_scancode_OK = false;
 8002310:	4a26      	ldr	r2, [pc, #152]	; (80023ac <main+0x230>)
			formerscancode[2] = scancode[2];
 8002312:	70ab      	strb	r3, [r5, #2]
			formerscancode[3] = scancode[3];
 8002314:	78e3      	ldrb	r3, [r4, #3]
 8002316:	70eb      	strb	r3, [r5, #3]
			scancode[0] = 0;
 8002318:	2300      	movs	r3, #0
 800231a:	7023      	strb	r3, [r4, #0]
			scancode[1] = 0;
 800231c:	7063      	strb	r3, [r4, #1]
			scancode[2] = 0;
 800231e:	70a3      	strb	r3, [r4, #2]
			scancode[3] = 0;
 8002320:	70e3      	strb	r3, [r4, #3]
			mount_scancode_OK = false;
 8002322:	7013      	strb	r3, [r2, #0]
		}	//if (mount_scancode())

		//The second functionality running in main loop: Update the keyboard leds
		if (update_ps2_leds)
 8002324:	4b22      	ldr	r3, [pc, #136]	; (80023b0 <main+0x234>)
 8002326:	781a      	ldrb	r2, [r3, #0]
 8002328:	b1aa      	cbz	r2, 8002356 <main+0x1da>
		{
			update_ps2_leds = false;
 800232a:	2200      	movs	r2, #0
 800232c:	701a      	strb	r2, [r3, #0]
			ps2_update_leds(ps2numlockstate, !gpio_get(CAPSLOCK_port, CAPSLOCK_pin_id), !gpio_get(KANA_port, KANA_pin_id));
 800232e:	4b21      	ldr	r3, [pc, #132]	; (80023b4 <main+0x238>)
 8002330:	4821      	ldr	r0, [pc, #132]	; (80023b8 <main+0x23c>)
 8002332:	781f      	ldrb	r7, [r3, #0]
 8002334:	2110      	movs	r1, #16
 8002336:	f000 f93d 	bl	80025b4 <gpio_get>
 800233a:	2140      	movs	r1, #64	; 0x40
 800233c:	4605      	mov	r5, r0
 800233e:	481e      	ldr	r0, [pc, #120]	; (80023b8 <main+0x23c>)
 8002340:	f000 f938 	bl	80025b4 <gpio_get>
 8002344:	fab5 f185 	clz	r1, r5
 8002348:	fab0 f280 	clz	r2, r0
 800234c:	0952      	lsrs	r2, r2, #5
 800234e:	0949      	lsrs	r1, r1, #5
 8002350:	4638      	mov	r0, r7
 8002352:	f7fe ffa1 	bl	8001298 <ps2_update_leds>
		}

		//Keep serial buffer empty and echo to output
		while(serial_available_get_char())
 8002356:	f7ff fc9b 	bl	8001c90 <serial_available_get_char>
 800235a:	2800      	cmp	r0, #0
 800235c:	d0b7      	beq.n	80022ce <main+0x152>
		{
			uint8_t ch = serial_get_char();
 800235e:	f7ff fca1 	bl	8001ca4 <serial_get_char>
			serial_put_char(ch);
 8002362:	f7ff fcd9 	bl	8001d18 <serial_put_char>
 8002366:	e7f6      	b.n	8002356 <main+0x1da>
		__asm("nop");
 8002368:	bf00      	nop
	while (systicks < (systicks_base + 7 * DELAY_JHONSON))
 800236a:	e7ab      	b.n	80022c4 <main+0x148>
 800236c:	080043bc 	stmdaeq	r0, {r2, r3, r4, r5, r7, r8, r9, lr}
 8002370:	080042b4 	stmdaeq	r0, {r2, r4, r5, r7, r9, lr}
 8002374:	080042fe 	stmdaeq	r0, {r1, r2, r3, r4, r5, r6, r7, r9, lr}
 8002378:	080042b2 	stmdaeq	r0, {r1, r4, r5, r7, r9, lr}
 800237c:	0800430a 	stmdaeq	r0, {r1, r3, r8, r9, lr}
 8002380:	08004313 	stmdaeq	r0, {r0, r1, r4, r8, r9, lr}
 8002384:	08004325 	stmdaeq	r0, {r0, r2, r5, r8, r9, lr}
 8002388:	08004343 	stmdaeq	r0, {r0, r1, r6, r8, r9, lr}
 800238c:	08004352 	stmdaeq	r0, {r1, r4, r6, r8, r9, lr}
 8002390:	0800435e 	stmdaeq	r0, {r1, r2, r3, r4, r6, r8, r9, lr}
 8002394:	0800437a 	stmdaeq	r0, {r1, r3, r4, r5, r6, r8, r9, lr}
 8002398:	2000054e 	andcs	r0, r0, lr, asr #10
 800239c:	20000558 	andcs	r0, r0, r8, asr r5
 80023a0:	200004a8 	andcs	r0, r0, r8, lsr #9
 80023a4:	40020800 	andmi	r0, r2, r0, lsl #16
 80023a8:	20000460 	andcs	r0, r0, r0, ror #8
 80023ac:	200004f6 	strdcs	r0, [r0], -r6
 80023b0:	200004ac 	andcs	r0, r0, ip, lsr #9
 80023b4:	2000054c 	andcs	r0, r0, ip, asr #10
 80023b8:	40020400 	andmi	r0, r2, r0, lsl #8

080023bc <exti_set_trigger>:
 80023bc:	2901      	cmp	r1, #1
 80023be:	d00f      	beq.n	80023e0 <exti_set_trigger+0x24>
 80023c0:	2902      	cmp	r1, #2
 80023c2:	d018      	beq.n	80023f6 <exti_set_trigger+0x3a>
 80023c4:	b959      	cbnz	r1, 80023de <exti_set_trigger+0x22>
 80023c6:	4b0e      	ldr	r3, [pc, #56]	; (8002400 <exti_set_trigger+0x44>)
 80023c8:	f8d3 2c08 	ldr.w	r2, [r3, #3080]	; 0xc08
 80023cc:	4302      	orrs	r2, r0
 80023ce:	f8c3 2c08 	str.w	r2, [r3, #3080]	; 0xc08
 80023d2:	f8d3 2c0c 	ldr.w	r2, [r3, #3084]	; 0xc0c
 80023d6:	ea22 0000 	bic.w	r0, r2, r0
 80023da:	f8c3 0c0c 	str.w	r0, [r3, #3084]	; 0xc0c
 80023de:	4770      	bx	lr
 80023e0:	4b07      	ldr	r3, [pc, #28]	; (8002400 <exti_set_trigger+0x44>)
 80023e2:	f8d3 2c08 	ldr.w	r2, [r3, #3080]	; 0xc08
 80023e6:	ea22 0200 	bic.w	r2, r2, r0
 80023ea:	f8c3 2c08 	str.w	r2, [r3, #3080]	; 0xc08
 80023ee:	f8d3 2c0c 	ldr.w	r2, [r3, #3084]	; 0xc0c
 80023f2:	4310      	orrs	r0, r2
 80023f4:	e7f1      	b.n	80023da <exti_set_trigger+0x1e>
 80023f6:	4b02      	ldr	r3, [pc, #8]	; (8002400 <exti_set_trigger+0x44>)
 80023f8:	f8d3 2c08 	ldr.w	r2, [r3, #3080]	; 0xc08
 80023fc:	4302      	orrs	r2, r0
 80023fe:	e7f4      	b.n	80023ea <exti_set_trigger+0x2e>
 8002400:	40013000 	andmi	r3, r1, r0

08002404 <exti_enable_request>:
 8002404:	4b05      	ldr	r3, [pc, #20]	; (800241c <exti_enable_request+0x18>)
 8002406:	f8d3 2c00 	ldr.w	r2, [r3, #3072]	; 0xc00
 800240a:	4302      	orrs	r2, r0
 800240c:	f8c3 2c00 	str.w	r2, [r3, #3072]	; 0xc00
 8002410:	f8d3 2c04 	ldr.w	r2, [r3, #3076]	; 0xc04
 8002414:	4310      	orrs	r0, r2
 8002416:	f8c3 0c04 	str.w	r0, [r3, #3076]	; 0xc04
 800241a:	4770      	bx	lr
 800241c:	40013000 	andmi	r3, r1, r0

08002420 <exti_disable_request>:
 8002420:	4b06      	ldr	r3, [pc, #24]	; (800243c <exti_disable_request+0x1c>)
 8002422:	f8d3 1c00 	ldr.w	r1, [r3, #3072]	; 0xc00
 8002426:	ea21 0100 	bic.w	r1, r1, r0
 800242a:	f8c3 1c00 	str.w	r1, [r3, #3072]	; 0xc00
 800242e:	f8d3 2c04 	ldr.w	r2, [r3, #3076]	; 0xc04
 8002432:	ea22 0200 	bic.w	r2, r2, r0
 8002436:	f8c3 2c04 	str.w	r2, [r3, #3076]	; 0xc04
 800243a:	4770      	bx	lr
 800243c:	40013000 	andmi	r3, r1, r0

08002440 <exti_reset_request>:
 8002440:	4b01      	ldr	r3, [pc, #4]	; (8002448 <exti_reset_request+0x8>)
 8002442:	f8c3 0c14 	str.w	r0, [r3, #3092]	; 0xc14
 8002446:	4770      	bx	lr
 8002448:	40013000 	andmi	r3, r1, r0

0800244c <exti_get_flag_status>:
 800244c:	4b02      	ldr	r3, [pc, #8]	; (8002458 <exti_get_flag_status+0xc>)
 800244e:	f8d3 3c14 	ldr.w	r3, [r3, #3092]	; 0xc14
 8002452:	4018      	ands	r0, r3
 8002454:	4770      	bx	lr
 8002456:	bf00      	nop
 8002458:	40013000 	andmi	r3, r1, r0

0800245c <exti_select_source>:
 800245c:	e92d 4ff0 	stmdb	sp!, {r4, r5, r6, r7, r8, r9, sl, fp, lr}
 8002460:	4f2b      	ldr	r7, [pc, #172]	; (8002510 <exti_select_source+0xb4>)
 8002462:	f8df e0c0 	ldr.w	lr, [pc, #192]	; 8002524 <exti_select_source+0xc8>
 8002466:	f8df 80c0 	ldr.w	r8, [pc, #192]	; 8002528 <exti_select_source+0xcc>
 800246a:	f8df 90c0 	ldr.w	r9, [pc, #192]	; 800252c <exti_select_source+0xd0>
 800246e:	f8df a0c0 	ldr.w	sl, [pc, #192]	; 8002530 <exti_select_source+0xd4>
 8002472:	f8df b0c0 	ldr.w	fp, [pc, #192]	; 8002534 <exti_select_source+0xd8>
 8002476:	4684      	mov	ip, r0
 8002478:	2200      	movs	r2, #0
 800247a:	2301      	movs	r3, #1
 800247c:	fa03 f002 	lsl.w	r0, r3, r2
 8002480:	ea10 0f0c 	tst.w	r0, ip
 8002484:	d01d      	beq.n	80024c2 <exti_select_source+0x66>
 8002486:	4823      	ldr	r0, [pc, #140]	; (8002514 <exti_select_source+0xb8>)
 8002488:	4281      	cmp	r1, r0
 800248a:	d037      	beq.n	80024fc <exti_select_source+0xa0>
 800248c:	d826      	bhi.n	80024dc <exti_select_source+0x80>
 800248e:	f5a0 6040 	sub.w	r0, r0, #3072	; 0xc00
 8002492:	4281      	cmp	r1, r0
 8002494:	d034      	beq.n	8002500 <exti_select_source+0xa4>
 8002496:	d819      	bhi.n	80024cc <exti_select_source+0x70>
 8002498:	4551      	cmp	r1, sl
 800249a:	d003      	beq.n	80024a4 <exti_select_source+0x48>
 800249c:	4559      	cmp	r1, fp
 800249e:	bf0c      	ite	eq
 80024a0:	2302      	moveq	r3, #2
 80024a2:	2300      	movne	r3, #0
 80024a4:	481c      	ldr	r0, [pc, #112]	; (8002518 <exti_select_source+0xbc>)
 80024a6:	eb00 0492 	add.w	r4, r0, r2, lsr #2
 80024aa:	00a4      	lsls	r4, r4, #2
 80024ac:	f002 0503 	and.w	r5, r2, #3
 80024b0:	6820      	ldr	r0, [r4, #0]
 80024b2:	00ad      	lsls	r5, r5, #2
 80024b4:	260f      	movs	r6, #15
 80024b6:	40ae      	lsls	r6, r5
 80024b8:	ea20 0006 	bic.w	r0, r0, r6
 80024bc:	40ab      	lsls	r3, r5
 80024be:	4318      	orrs	r0, r3
 80024c0:	6020      	str	r0, [r4, #0]
 80024c2:	3201      	adds	r2, #1
 80024c4:	2a10      	cmp	r2, #16
 80024c6:	d1d8      	bne.n	800247a <exti_select_source+0x1e>
 80024c8:	e8bd 8ff0 	ldmia.w	sp!, {r4, r5, r6, r7, r8, r9, sl, fp, pc}
 80024cc:	4549      	cmp	r1, r9
 80024ce:	d019      	beq.n	8002504 <exti_select_source+0xa8>
 80024d0:	4b12      	ldr	r3, [pc, #72]	; (800251c <exti_select_source+0xc0>)
 80024d2:	4299      	cmp	r1, r3
 80024d4:	bf0c      	ite	eq
 80024d6:	2305      	moveq	r3, #5
 80024d8:	2300      	movne	r3, #0
 80024da:	e7e3      	b.n	80024a4 <exti_select_source+0x48>
 80024dc:	42b9      	cmp	r1, r7
 80024de:	d013      	beq.n	8002508 <exti_select_source+0xac>
 80024e0:	d806      	bhi.n	80024f0 <exti_select_source+0x94>
 80024e2:	4571      	cmp	r1, lr
 80024e4:	d012      	beq.n	800250c <exti_select_source+0xb0>
 80024e6:	4541      	cmp	r1, r8
 80024e8:	bf0c      	ite	eq
 80024ea:	2308      	moveq	r3, #8
 80024ec:	2300      	movne	r3, #0
 80024ee:	e7d9      	b.n	80024a4 <exti_select_source+0x48>
 80024f0:	4b0b      	ldr	r3, [pc, #44]	; (8002520 <exti_select_source+0xc4>)
 80024f2:	4299      	cmp	r1, r3
 80024f4:	bf0c      	ite	eq
 80024f6:	230a      	moveq	r3, #10
 80024f8:	2300      	movne	r3, #0
 80024fa:	e7d3      	b.n	80024a4 <exti_select_source+0x48>
 80024fc:	2306      	movs	r3, #6
 80024fe:	e7d1      	b.n	80024a4 <exti_select_source+0x48>
 8002500:	2303      	movs	r3, #3
 8002502:	e7cf      	b.n	80024a4 <exti_select_source+0x48>
 8002504:	2304      	movs	r3, #4
 8002506:	e7cd      	b.n	80024a4 <exti_select_source+0x48>
 8002508:	2309      	movs	r3, #9
 800250a:	e7cb      	b.n	80024a4 <exti_select_source+0x48>
 800250c:	2307      	movs	r3, #7
 800250e:	e7c9      	b.n	80024a4 <exti_select_source+0x48>
 8002510:	40022400 	andmi	r2, r2, r0, lsl #8
 8002514:	40021800 	andmi	r1, r2, r0, lsl #16
 8002518:	10004e02 	andne	r4, r0, r2, lsl #28
 800251c:	40021400 	andmi	r1, r2, r0, lsl #8
 8002520:	40022800 	andmi	r2, r2, r0, lsl #16
 8002524:	40021c00 	andmi	r1, r2, r0, lsl #24
 8002528:	40022000 	andmi	r2, r2, r0
 800252c:	40021000 	andmi	r1, r2, r0
 8002530:	40020400 	andmi	r0, r2, r0, lsl #8
 8002534:	40020800 	andmi	r0, r2, r0, lsl #16

08002538 <flash_set_program_size>:
 8002538:	4b06      	ldr	r3, [pc, #24]	; (8002554 <flash_set_program_size+0x1c>)
 800253a:	f8d3 1c10 	ldr.w	r1, [r3, #3088]	; 0xc10
 800253e:	f421 7140 	bic.w	r1, r1, #768	; 0x300
 8002542:	f8c3 1c10 	str.w	r1, [r3, #3088]	; 0xc10
 8002546:	f8d3 2c10 	ldr.w	r2, [r3, #3088]	; 0xc10
 800254a:	ea42 2000 	orr.w	r0, r2, r0, lsl #8
 800254e:	f8c3 0c10 	str.w	r0, [r3, #3088]	; 0xc10
 8002552:	4770      	bx	lr
 8002554:	40023000 	andmi	r3, r2, r0

08002558 <flash_program_byte>:
 8002558:	b570      	push	{r4, r5, r6, lr}
 800255a:	4c0c      	ldr	r4, [pc, #48]	; (800258c <flash_program_byte+0x34>)
 800255c:	460e      	mov	r6, r1
 800255e:	4605      	mov	r5, r0
 8002560:	f000 fb98 	bl	8002c94 <flash_wait_for_last_operation>
 8002564:	2000      	movs	r0, #0
 8002566:	f7ff ffe7 	bl	8002538 <flash_set_program_size>
 800256a:	f8d4 3c10 	ldr.w	r3, [r4, #3088]	; 0xc10
 800256e:	f043 0301 	orr.w	r3, r3, #1
 8002572:	f8c4 3c10 	str.w	r3, [r4, #3088]	; 0xc10
 8002576:	702e      	strb	r6, [r5, #0]
 8002578:	f000 fb8c 	bl	8002c94 <flash_wait_for_last_operation>
 800257c:	f8d4 3c10 	ldr.w	r3, [r4, #3088]	; 0xc10
 8002580:	f023 0301 	bic.w	r3, r3, #1
 8002584:	f8c4 3c10 	str.w	r3, [r4, #3088]	; 0xc10
 8002588:	bd70      	pop	{r4, r5, r6, pc}
 800258a:	bf00      	nop
 800258c:	40023000 	andmi	r3, r2, r0

08002590 <flash_program>:
 8002590:	b570      	push	{r4, r5, r6, lr}
 8002592:	188d      	adds	r5, r1, r2
 8002594:	460c      	mov	r4, r1
 8002596:	1a46      	subs	r6, r0, r1
 8002598:	42ac      	cmp	r4, r5
 800259a:	d100      	bne.n	800259e <flash_program+0xe>
 800259c:	bd70      	pop	{r4, r5, r6, pc}
 800259e:	1930      	adds	r0, r6, r4
 80025a0:	f814 1b01 	ldrb.w	r1, [r4], #1
 80025a4:	f7ff ffd8 	bl	8002558 <flash_program_byte>
 80025a8:	e7f6      	b.n	8002598 <flash_program+0x8>

080025aa <gpio_set>:
 80025aa:	6181      	str	r1, [r0, #24]
 80025ac:	4770      	bx	lr

080025ae <gpio_clear>:
 80025ae:	0409      	lsls	r1, r1, #16
 80025b0:	6181      	str	r1, [r0, #24]
 80025b2:	4770      	bx	lr

080025b4 <gpio_get>:
 80025b4:	6900      	ldr	r0, [r0, #16]
 80025b6:	4008      	ands	r0, r1
 80025b8:	4770      	bx	lr

080025ba <gpio_toggle>:
 80025ba:	6943      	ldr	r3, [r0, #20]
 80025bc:	ea01 0203 	and.w	r2, r1, r3
 80025c0:	ea21 0103 	bic.w	r1, r1, r3
 80025c4:	ea41 4102 	orr.w	r1, r1, r2, lsl #16
